(lp0
(lp1
NaNaNaNaNaNaNaNaNaNaa(lp2
ccopy_reg
_reconstructor
p3
(cnetworkx.classes.digraph
DiGraph
p4
c__builtin__
object
p5
Ntp6
Rp7
(dp8
S'adjlist_inner_dict_factory'
p9
c__builtin__
dict
p10
sS'node_dict_factory'
p11
g10
sS'edge_attr_dict_factory'
p12
g10
sS'_node'
p13
(dp14
I1
(dp15
S'active'
p16
I01
sS'ActFunc'
p17
cNeuralNet.activations
noFunc
p18
sS'bias'
p19
cnumpy.core.multiarray
scalar
p20
(cnumpy
dtype
p21
(S'f8'
p22
I0
I1
tp23
Rp24
(I3
S'<'
p25
NNNI-1
I-1
I0
tp26
bS'\x00\x00\x00\x00\x00\x00\x00\x00'
p27
tp28
Rp29
sS'pos'
p30
cnumpy.core.multiarray
_reconstruct
p31
(cnumpy
ndarray
p32
(I0
tp33
S'b'
p34
tp35
Rp36
(I1
(I2
tp37
g21
(S'i8'
p38
I0
I1
tp39
Rp40
(I3
S'<'
p41
NNNI-1
I-1
I0
tp42
bI00
S'\x00\x00\x00\x00\x00\x00\x00\x00\x00\x00\x00\x00\x00\x00\x00\x00'
p43
tp44
bsS'pos1'
p45
g31
(g32
(I0
tp46
g34
tp47
Rp48
(I1
(I2
tp49
g21
(S'f8'
p50
I0
I1
tp51
Rp52
(I3
S'<'
p53
NNNI-1
I-1
I0
tp54
bI00
S'\x9a\x99\x99\x99\x99\x99\xb9?\x9a\x99\x99\x99\x99\x99\xb9?'
p55
tp56
bssI2
(dp57
g16
I01
sg17
g18
sg19
g20
(g24
S'\x00\x00\x00\x00\x00\x00\x00\x00'
p58
tp59
Rp60
sg30
g31
(g32
(I0
tp61
g34
tp62
Rp63
(I1
(I2
tp64
g40
I00
S'\x01\x00\x00\x00\x00\x00\x00\x00\x00\x00\x00\x00\x00\x00\x00\x00'
p65
tp66
bsg45
g31
(g32
(I0
tp67
g34
tp68
Rp69
(I1
(I2
tp70
g52
I00
S'\x9a\x99\x99\x99\x99\x99\xf1?\x9a\x99\x99\x99\x99\x99\xb9?'
p71
tp72
bssI3
(dp73
g16
I01
sg17
g18
sg19
g20
(g24
S'\x00\x00\x00\x00\x00\x00\x00\x00'
p74
tp75
Rp76
sg30
g31
(g32
(I0
tp77
g34
tp78
Rp79
(I1
(I2
tp80
g40
I00
S'\x02\x00\x00\x00\x00\x00\x00\x00\x00\x00\x00\x00\x00\x00\x00\x00'
p81
tp82
bsg45
g31
(g32
(I0
tp83
g34
tp84
Rp85
(I1
(I2
tp86
g52
I00
S'\xcd\xcc\xcc\xcc\xcc\xcc\x00@\x9a\x99\x99\x99\x99\x99\xb9?'
p87
tp88
bssI5
(dp89
g16
I01
sg17
cNeuralNet.activations
tanh
p90
sg19
g20
(g24
S'u\xc0k\xb7\xa8\xf3\x18@'
p91
tp92
Rp93
sg30
g31
(g32
(I0
tp94
g34
tp95
Rp96
(I1
(I2
tp97
g40
I00
S'\x00\x00\x00\x00\x00\x00\x00\x00\x01\x00\x00\x00\x00\x00\x00\x00'
p98
tp99
bsg45
g31
(g32
(I0
tp100
g34
tp101
Rp102
(I1
(I2
tp103
g52
I00
S'\x9a\x99\x99\x99\x99\x99\xb9?\x9a\x99\x99\x99\x99\x99\xf1?'
p104
tp105
bssI6
(dp106
g16
I01
sg17
g90
sg19
g20
(g24
S'\xec\xed\xab`\xf0\x1e$@'
p107
tp108
Rp109
sg30
g31
(g32
(I0
tp110
g34
tp111
Rp112
(I1
(I2
tp113
g40
I00
S'\x01\x00\x00\x00\x00\x00\x00\x00\x01\x00\x00\x00\x00\x00\x00\x00'
p114
tp115
bsg45
g31
(g32
(I0
tp116
g34
tp117
Rp118
(I1
(I2
tp119
g52
I00
S'\x9a\x99\x99\x99\x99\x99\xf1?\x9a\x99\x99\x99\x99\x99\xf1?'
p120
tp121
bssI7
(dp122
g16
I01
sg17
g90
sg19
g20
(g24
S'\x15v\xfcy\xe7\xf5 @'
p123
tp124
Rp125
sg30
g31
(g32
(I0
tp126
g34
tp127
Rp128
(I1
(I2
tp129
g40
I00
S'\x02\x00\x00\x00\x00\x00\x00\x00\x01\x00\x00\x00\x00\x00\x00\x00'
p130
tp131
bsg45
g31
(g32
(I0
tp132
g34
tp133
Rp134
(I1
(I2
tp135
g52
I00
S'\xcd\xcc\xcc\xcc\xcc\xcc\x00@\x9a\x99\x99\x99\x99\x99\xf1?'
p136
tp137
bssI8
(dp138
g16
I01
sg17
g90
sg19
g20
(g24
S'\xfdD]m,o\x17\xc0'
p139
tp140
Rp141
sg30
g31
(g32
(I0
tp142
g34
tp143
Rp144
(I1
(I2
tp145
g40
I00
S'\x03\x00\x00\x00\x00\x00\x00\x00\x01\x00\x00\x00\x00\x00\x00\x00'
p146
tp147
bsg45
g31
(g32
(I0
tp148
g34
tp149
Rp150
(I1
(I2
tp151
g52
I00
S'\xcd\xcc\xcc\xcc\xcc\xcc\x08@\x9a\x99\x99\x99\x99\x99\xf1?'
p152
tp153
bssI9
(dp154
g16
I01
sg17
g90
sg19
g20
(g24
S'\n\x0es\xf4q\xea\x19@'
p155
tp156
Rp157
sg30
g31
(g32
(I0
tp158
g34
tp159
Rp160
(I1
(I2
tp161
g40
I00
S'\x00\x00\x00\x00\x00\x00\x00\x00\x02\x00\x00\x00\x00\x00\x00\x00'
p162
tp163
bsg45
g31
(g32
(I0
tp164
g34
tp165
Rp166
(I1
(I2
tp167
g52
I00
S'\x9a\x99\x99\x99\x99\x99\xb9?\xcd\xcc\xcc\xcc\xcc\xcc\x00@'
p168
tp169
bssI10
(dp170
g16
I01
sg17
g90
sg19
g20
(g24
S"l\xd0 \x1d\x1aI'@"
p171
tp172
Rp173
sg30
g31
(g32
(I0
tp174
g34
tp175
Rp176
(I1
(I2
tp177
g40
I00
S'\x01\x00\x00\x00\x00\x00\x00\x00\x02\x00\x00\x00\x00\x00\x00\x00'
p178
tp179
bsg45
g31
(g32
(I0
tp180
g34
tp181
Rp182
(I1
(I2
tp183
g52
I00
S'\x9a\x99\x99\x99\x99\x99\xf1?\xcd\xcc\xcc\xcc\xcc\xcc\x00@'
p184
tp185
bssI11
(dp186
g16
I01
sg17
g90
sg19
g20
(g24
S']\xbd$E\x1f/"\xc0'
p187
tp188
Rp189
sg30
g31
(g32
(I0
tp190
g34
tp191
Rp192
(I1
(I2
tp193
g40
I00
S'\x02\x00\x00\x00\x00\x00\x00\x00\x02\x00\x00\x00\x00\x00\x00\x00'
p194
tp195
bsg45
g31
(g32
(I0
tp196
g34
tp197
Rp198
(I1
(I2
tp199
g52
I00
S'\xcd\xcc\xcc\xcc\xcc\xcc\x00@\xcd\xcc\xcc\xcc\xcc\xcc\x00@'
p200
tp201
bsssS'graph'
p202
(dp203
sS'nodes'
p204
g3
(cnetworkx.classes.reportviews
NodeView
p205
g5
Ntp206
Rp207
(dp208
S'_nodes'
p209
g14
sbsS'_pred'
p210
(dp211
I1
(dp212
sI2
(dp213
sI3
(dp214
sI5
(dp215
I3
(dp216
g16
g20
(g21
(S'b1'
p217
I0
I1
tp218
Rp219
(I3
S'|'
p220
NNNI-1
I-1
I0
tp221
bS'\x01'
p222
tp223
Rp224
sS'weight'
p225
g20
(g24
S'<\xea \x8fWK\x1f\xc0'
p226
tp227
Rp228
sssI6
(dp229
I2
(dp230
g16
g224
sg225
g20
(g24
S'Ld\xea\xe3A$$@'
p231
tp232
Rp233
ssI3
(dp234
g16
g224
sg225
g20
(g24
S"\xbd\xc2\xf0\xc4\xd4\x0f'\xc0"
p235
tp236
Rp237
sssI7
(dp238
I1
(dp239
g16
g224
sg225
g20
(g24
S'pH/\x1c)P*\xc0'
p240
tp241
Rp242
ssI2
(dp243
g16
g224
sg225
g20
(g24
S'hn\xce\x02\x83\x8b\x15\xc0'
p244
tp245
Rp246
sssI8
(dp247
I1
(dp248
g16
g224
sg225
g20
(g24
S'\xef%2X\xa7\xd7\x06@'
p249
tp250
Rp251
ssI2
(dp252
g16
g224
sg225
I-15
ssI3
(dp253
g16
g224
sg225
g20
(g24
S'\xc5d:\x9e\xc0\xd1\x10\xc0'
p254
tp255
Rp256
sssI9
(dp257
I8
(dp258
g16
g224
sg225
g20
(g24
S'\x1c#\xc1\x0b\t\x1d\x16@'
p259
tp260
Rp261
ssI5
(dp262
g16
g224
sg225
g20
(g24
S'\x00j\xf3\x107\xb5\xee?'
p263
tp264
Rp265
ssI6
(dp266
g16
g224
sg225
g20
(g24
S']\xd8i\x86\x83Y#\xc0'
p267
tp268
Rp269
sssI10
(dp270
I5
(dp271
g16
g224
sg225
g20
(g24
S'\x1c{\x08\xfc\xf1\xa9\xc3?'
p272
tp273
Rp274
ssI6
(dp275
g16
g224
sg225
g20
(g24
S'&3W\x8c$l\x06\xc0'
p276
tp277
Rp278
ssI7
(dp279
g16
g224
sg225
g20
(g24
S'\x94e\xd6[_\xc3(\xc0'
p280
tp281
Rp282
sssI11
(dp283
I8
(dp284
g16
g224
sg225
g20
(g24
S'8p\xdf\xab-\xa7\xf8?'
p285
tp286
Rp287
ssI5
(dp288
g16
g224
sg225
g20
(g24
S'q\xab/\x7f\xdc\xc4,@'
p289
tp290
Rp291
ssI6
(dp292
g16
g224
sg225
g20
(g24
S'\xaaU\x07q\xf5} \xc0'
p293
tp294
Rp295
ssI7
(dp296
g16
g224
sg225
g20
(g24
S'\xe8\xe87\xf9`$\x02@'
p297
tp298
Rp299
ssssS'_succ'
p300
(dp301
I1
(dp302
I8
g248
sI7
g239
ssI2
(dp303
I8
g252
sI6
g230
sI7
g243
ssI3
(dp304
I8
g253
sI5
g216
sI6
g234
ssI5
(dp305
I9
g262
sI10
g271
sI11
g288
ssI6
(dp306
I9
g266
sI10
g275
sI11
g292
ssI7
(dp307
I10
g279
sI11
g296
ssI8
(dp308
I9
g258
sI11
g284
ssI9
(dp309
sI10
(dp310
sI11
(dp311
ssS'_adj'
p312
g301
sS'adjlist_outer_dict_factory'
p313
g10
sbag3
(g4
g5
Ntp314
Rp315
(dp316
g9
g10
sg11
g10
sg12
g10
sg13
(dp317
I1
(dp318
g16
I01
sg17
g18
sg19
g29
sg30
g36
sg45
g48
ssI2
(dp319
g16
I01
sg17
g18
sg19
g60
sg30
g63
sg45
g69
ssI3
(dp320
g16
I01
sg17
g18
sg19
g76
sg30
g79
sg45
g85
ssI5
(dp321
g16
I01
sg17
g90
sg19
g20
(g24
S'fD\xa5\xb0~\xf4\x1c@'
p322
tp323
Rp324
sg30
g96
sg45
g102
ssI6
(dp325
g16
I01
sg17
g90
sg19
g109
sg30
g112
sg45
g118
ssI7
(dp326
g16
I01
sg17
g90
sg19
g20
(g24
S'?`\x923_F\x0b@'
p327
tp328
Rp329
sg30
g128
sg45
g134
ssI8
(dp330
g16
I01
sg17
g90
sg19
g20
(g24
S'J\xc4\xf0\xbd\x8a\xe1\x10\xc0'
p331
tp332
Rp333
sg30
g144
sg45
g150
ssI9
(dp334
g16
I01
sg17
g90
sg19
g20
(g24
S':\xc1\x19M\x9c\x12\x08@'
p335
tp336
Rp337
sg30
g160
sg45
g166
ssI10
(dp338
g16
I01
sg17
g90
sg19
I15
sg30
g176
sg45
g182
ssI11
(dp339
g16
I01
sg17
g90
sg19
g189
sg30
g192
sg45
g198
sssg202
(dp340
sg204
g3
(g205
g5
Ntp341
Rp342
(dp343
g209
g317
sbsg210
(dp344
I1
(dp345
sI2
(dp346
sI3
(dp347
sI5
(dp348
I2
(dp349
S'active'
p350
I01
sS'weight'
p351
g20
(g24
S'\xc6\x02\x7f\x14\x87\xb9\xfa\xbf'
p352
tp353
Rp354
ssI3
(dp355
g16
g224
sg225
g20
(g24
S'\x18<;\xc0\xd3\xc3"\xc0'
p356
tp357
Rp358
sssI6
(dp359
I1
(dp360
g350
I01
sg351
g20
(g24
S'"\x8f\x8c\xdb|\xa6%@'
p361
tp362
Rp363
ssI2
(dp364
g16
g224
sg225
g20
(g24
S'\x0f\x1b\xe8\xb3Z\x8e*@'
p365
tp366
Rp367
ssI3
(dp368
g16
g224
sg225
I-15
sssI7
(dp369
I1
(dp370
g16
g224
sg225
g20
(g24
S'ty\x87L4\xf8,\xc0'
p371
tp372
Rp373
ssI2
(dp374
g16
g224
sg225
g20
(g24
S'|q! \x1bX\x11\xc0'
p375
tp376
Rp377
sssI8
(dp378
I1
(dp379
g16
g224
sg225
g20
(g24
S'\x05\x98\xde\xcc\xdd\xf3\xf1\xbf'
p380
tp381
Rp382
ssI2
(dp383
g16
g224
sg225
g20
(g24
S'\xd4\x88\xe1$\xc6\x97-\xc0'
p384
tp385
Rp386
sssI9
(dp387
I8
(dp388
g16
g224
sg225
g20
(g24
S'\x9a\xeb\xe2\xff\xfe\x0b\x15@'
p389
tp390
Rp391
ssI5
(dp392
g16
g224
sg225
g20
(g24
S'"\xc4\x800\xa2\x15\xf9?'
p393
tp394
Rp395
ssI6
(dp396
g16
g224
sg225
g20
(g24
S'\x82\x1eN\x856\xf8\x18\xc0'
p397
tp398
Rp399
sssI10
(dp400
I8
(dp401
S'active'
p402
I01
sS'weight'
p403
g20
(g24
S'\xac\xd9*V\xfe\xd6\xf2\xbf'
p404
tp405
Rp406
ssI5
(dp407
g16
g224
sg225
g20
(g24
S'\xb1\x95\xed\x08\x86\x05\xff?'
p408
tp409
Rp410
ssI6
(dp411
g16
g224
sg225
g20
(g24
S'-\xcb\xbf\x07\x93\x9e$\xc0'
p412
tp413
Rp414
ssI7
(dp415
g16
g224
sg225
I-15
sssI11
(dp416
I8
(dp417
g16
g224
sg225
g20
(g24
S'\xa9i&\xb5E\x0c\x19@'
p418
tp419
Rp420
ssI5
(dp421
g16
g224
sg225
I15
ssI6
(dp422
g16
g224
sg225
g20
(g24
S'4\xf2\x15q\x19L+\xc0'
p423
tp424
Rp425
ssI7
(dp426
g16
g224
sg225
g20
(g24
S'T\xd0\xc95\xdc\xaf\x1f@'
p427
tp428
Rp429
ssssg300
(dp430
I1
(dp431
I8
g379
sI6
g360
sI7
g370
ssI2
(dp432
I8
g383
sI5
g349
sI6
g364
sI7
g374
ssI3
(dp433
I5
g355
sI6
g368
ssI5
(dp434
I9
g392
sI10
g407
sI11
g421
ssI6
(dp435
I9
g396
sI10
g411
sI11
g422
ssI7
(dp436
I10
g415
sI11
g426
ssI8
(dp437
I9
g388
sI10
g401
sI11
g417
ssI9
(dp438
sI10
(dp439
sI11
(dp440
ssg312
g430
sg313
g10
sbag3
(g4
g5
Ntp441
Rp442
(dp443
g9
g10
sg11
g10
sg12
g10
sg13
(dp444
I1
(dp445
g16
I01
sg17
g18
sg19
g29
sg30
g36
sg45
g48
ssI2
(dp446
g16
I01
sg17
g18
sg19
g60
sg30
g63
sg45
g69
ssI3
(dp447
g16
I01
sg17
g18
sg19
g76
sg30
g79
sg45
g85
ssI5
(dp448
g16
I01
sg17
g90
sg19
g20
(g24
S'N\xf0\x11\x90P\x8d\x1d@'
p449
tp450
Rp451
sg30
g96
sg45
g102
ssI6
(dp452
g16
I01
sg17
g90
sg19
g109
sg30
g112
sg45
g118
ssI7
(dp453
g16
I01
sg17
g90
sg19
g329
sg30
g128
sg45
g134
ssI8
(dp454
g16
I01
sg17
g90
sg19
g333
sg30
g144
sg45
g150
ssI9
(dp455
g16
I01
sg17
g90
sg19
g20
(g24
S'\xddP\xf7#\x0b\x04\x0f@'
p456
tp457
Rp458
sg30
g160
sg45
g166
ssI10
(dp459
g16
I01
sg17
g90
sg19
I15
sg30
g176
sg45
g182
ssI11
(dp460
g16
I01
sg17
g90
sg19
g189
sg30
g192
sg45
g198
sssg202
(dp461
sg204
g3
(g205
g5
Ntp462
Rp463
(dp464
g209
g444
sbsg210
(dp465
I1
(dp466
sI2
(dp467
sI3
(dp468
sI5
(dp469
I2
(dp470
g350
I01
sg351
g354
ssI3
(dp471
g16
g224
sg225
g358
sssI6
(dp472
I1
(dp473
g350
I01
sg351
g363
ssI2
(dp474
g16
g224
sg225
g20
(g24
S'\x12S\x9dX\x88\xf3*@'
p475
tp476
Rp477
ssI3
(dp478
g16
g224
sg225
I-15
sssI7
(dp479
I1
(dp480
g16
g224
sg225
g20
(g24
S'5P*\x12\xd6++\xc0'
p481
tp482
Rp483
ssI2
(dp484
g16
g224
sg225
g20
(g24
S'\x80;\x1a\x88*a\x11\xc0'
p485
tp486
Rp487
sssI8
(dp488
I1
(dp489
g16
g224
sg225
g382
ssI2
(dp490
g16
g224
sg225
I-15
sssI9
(dp491
I8
(dp492
g16
g224
sg225
g391
ssI5
(dp493
g16
g224
sg225
g395
ssI6
(dp494
g16
g224
sg225
g399
sssI10
(dp495
I8
(dp496
g402
I01
sg403
g20
(g24
S'<I\xdc\xb7\xb5u\x11@'
p497
tp498
Rp499
ssI5
(dp500
g16
g224
sg225
g20
(g24
S'f\x07u(0\xf5\xf8?'
p501
tp502
Rp503
ssI6
(dp504
g16
g224
sg225
g20
(g24
S'\xea\xf2\x91iY\xae$\xc0'
p505
tp506
Rp507
ssI7
(dp508
g16
g224
sg225
I-15
sssI11
(dp509
I8
(dp510
g16
g224
sg225
g20
(g24
S"\x96\x92\xe5W\x1d'\x18@"
p511
tp512
Rp513
ssI5
(dp514
g16
g224
sg225
I15
ssI6
(dp515
g16
g224
sg225
g20
(g24
S'%EmN\xd9_-\xc0'
p516
tp517
Rp518
ssI7
(dp519
g16
g224
sg225
g429
ssssg300
(dp520
I1
(dp521
I8
g489
sI6
g473
sI7
g480
ssI2
(dp522
I8
g490
sI5
g470
sI6
g474
sI7
g484
ssI3
(dp523
I5
g471
sI6
g478
ssI5
(dp524
I9
g493
sI10
g500
sI11
g514
ssI6
(dp525
I9
g494
sI10
g504
sI11
g515
ssI7
(dp526
I10
g508
sI11
g519
ssI8
(dp527
I9
g492
sI10
g496
sI11
g510
ssI9
(dp528
sI10
(dp529
sI11
(dp530
ssg312
g520
sg313
g10
sbag3
(g4
g5
Ntp531
Rp532
(dp533
g9
g10
sg11
g10
sg12
g10
sg13
(dp534
I1
(dp535
g16
I01
sg17
g18
sg19
g20
(g24
S'\x00\x00\x00\x00\x00\x00\x00\x00'
p536
tp537
Rp538
sg30
g36
sg45
g48
ssI2
(dp539
g16
I01
sg17
g18
sg19
g20
(g24
S'\x00\x00\x00\x00\x00\x00\x00\x00'
p540
tp541
Rp542
sg30
g63
sg45
g69
ssI3
(dp543
g16
I01
sg17
g18
sg19
g20
(g24
S'\x00\x00\x00\x00\x00\x00\x00\x00'
p544
tp545
Rp546
sg30
g79
sg45
g85
ssI5
(dp547
g16
I01
sg17
g90
sg19
g20
(g24
S'\x00\x00\x00\x00\x00\x00&\xc0'
p548
tp549
Rp550
sg30
g96
sg45
g102
ssI6
(dp551
g16
I01
sg17
g90
sg19
g20
(g24
S'\x00\x00\x00\x00\x00\x00\x1c@'
p552
tp553
Rp554
sg30
g112
sg45
g118
ssI7
(dp555
g16
I01
sg17
g90
sg19
g20
(g24
S'u\xaa\x85\xf7\xb1\xf6\xfe?'
p556
tp557
Rp558
sg30
g128
sg45
g134
ssI8
(dp559
g16
I01
sg17
g90
sg19
g20
(g24
S'\xe4\n\xd0\xe15m\xf5?'
p560
tp561
Rp562
sg30
g144
sg45
g150
ssI9
(dp563
g16
I01
sg17
g90
sg19
g20
(g24
S'\x8c\xe9k\xe0\xb0\xee\x19@'
p564
tp565
Rp566
sg30
g160
sg45
g166
ssI10
(dp567
g16
I01
sg17
g90
sg19
g20
(g24
S'\x00\x00\x00\x00\x00\x00"\xc0'
p568
tp569
Rp570
sg30
g176
sg45
g182
ssI11
(dp571
g16
I01
sg17
g90
sg19
g20
(g24
S'\xcb\xa4\xadz\x00\x82\x13\xc0'
p572
tp573
Rp574
sg30
g192
sg45
g198
sssg202
(dp575
sg204
g3
(g205
g5
Ntp576
Rp577
(dp578
g209
g534
sbsg210
(dp579
I1
(dp580
sI2
(dp581
sI3
(dp582
sI5
(dp583
I1
(dp584
g16
g224
sg225
g20
(g24
S'[\x9a\x8eR\x7f\xc1&\xc0'
p585
tp586
Rp587
ssI2
(dp588
g16
g224
sg225
g20
(g24
S'\x14\x96\x99\xc72\x0e\x1c\xc0'
p589
tp590
Rp591
ssI3
(dp592
g16
g224
sg225
g20
(g24
S'\xac\x15V \xd8\x98*@'
p593
tp594
Rp595
sssI6
(dp596
I1
(dp597
g16
g224
sg225
g20
(g24
S'\x00\x00\x00\x00\x00\x00\x1c\xc0'
p598
tp599
Rp600
ssI2
(dp601
g16
g224
sg225
g20
(g24
S'\x8a\xa4\x0f(\x9e8-@'
p602
tp603
Rp604
ssI3
(dp605
g16
g224
sg225
g20
(g24
S'\x00\x00\x00\x00\x00\x00.@'
p606
tp607
Rp608
sssI7
(dp609
I1
(dp610
g16
g224
sg225
g20
(g24
S'\x00\x00\x00\x00\x00\x00&\xc0'
p611
tp612
Rp613
ssI2
(dp614
g16
g224
sg225
g20
(g24
S';\xb6o\x83\xa2M\x10\xc0'
p615
tp616
Rp617
ssI3
(dp618
g16
g224
sg225
I15
sssI8
(dp619
I1
(dp620
g16
g224
sg225
g20
(g24
S'&Dn\x9d"\xa1\x18@'
p621
tp622
Rp623
ssI2
(dp624
S'active'
p625
I01
sS'weight'
p626
I15
ssI3
(dp627
g16
g224
sg225
g20
(g24
S'\xb6\xae\x92\x03P\xb8\x11@'
p628
tp629
Rp630
sssI9
(dp631
I8
(dp632
g16
g224
sg225
g20
(g24
S'\x00\x00\x00\x00\x00\x00\x08@'
p633
tp634
Rp635
ssI5
(dp636
g16
g224
sg225
g20
(g24
S'\x00\x00\x00\x00\x00\x00&@'
p637
tp638
Rp639
ssI6
(dp640
g16
g224
sg225
g20
(g24
S'\x00\x00\x00\x00\x00\x00"@'
p641
tp642
Rp643
ssI7
(dp644
g16
g224
sg225
g20
(g24
S"\xb8\x931H\xb4\x08'@"
p645
tp646
Rp647
sssI10
(dp648
I8
(dp649
g16
g224
sg225
g406
ssI5
(dp650
g16
g224
sg225
g20
(g24
S'\x00\x00\x00\x00\x00\x00*\xc0'
p651
tp652
Rp653
ssI6
(dp654
g16
g224
sg225
g20
(g24
S'\x00h:w\xe3*\xea\xbf'
p655
tp656
Rp657
ssI7
(dp658
g16
g224
sg225
g20
(g24
S'\x8e|\x06P\xdb\\#\xc0'
p659
tp660
Rp661
sssI11
(dp662
I5
(dp663
g16
g224
sg225
g20
(g24
S'R\x84g\xb3\x1fO\x17\xc0'
p664
tp665
Rp666
ssI6
(dp667
g16
g224
sg225
g20
(g24
S'8\xe6#\xa2\xb0P,@'
p668
tp669
Rp670
ssI7
(dp671
S'active'
p672
I01
sS'weight'
p673
g20
(g24
S'\xd0\x15p(\xc0\r\t@'
p674
tp675
Rp676
ssssg300
(dp677
I1
(dp678
I8
g620
sI5
g584
sI6
g597
sI7
g610
ssI2
(dp679
I8
g624
sI5
g588
sI6
g601
sI7
g614
ssI3
(dp680
I8
g627
sI5
g592
sI6
g605
sI7
g618
ssI5
(dp681
I9
g636
sI10
g650
sI11
g663
ssI6
(dp682
I9
g640
sI10
g654
sI11
g667
ssI7
(dp683
I9
g644
sI10
g658
sI11
g671
ssI8
(dp684
I9
g632
sI10
g649
ssI9
(dp685
sI10
(dp686
sI11
(dp687
ssg312
g677
sg313
g10
sbag3
(g4
g5
Ntp688
Rp689
(dp690
g9
g10
sg11
g10
sg12
g10
sg13
(dp691
I1
(dp692
g16
I01
sg17
g18
sg19
g20
(g24
S'\x00\x00\x00\x00\x00\x00\x00\x00'
p693
tp694
Rp695
sg30
g36
sg45
g48
ssI2
(dp696
g16
I01
sg17
g18
sg19
g20
(g24
S'\x00\x00\x00\x00\x00\x00\x00\x00'
p697
tp698
Rp699
sg30
g63
sg45
g69
ssI3
(dp700
g16
I01
sg17
g18
sg19
g20
(g24
S'\x00\x00\x00\x00\x00\x00\x00\x00'
p701
tp702
Rp703
sg30
g79
sg45
g85
ssI5
(dp704
g16
I01
sg17
g90
sg19
g20
(g24
S'\xfa\xf2\xf3!\x82Y\x1b\xc0'
p705
tp706
Rp707
sg30
g96
sg45
g102
ssI6
(dp708
g16
I01
sg17
g90
sg19
g20
(g24
S'd\x87\x86\x86\x1fp)\xc0'
p709
tp710
Rp711
sg30
g112
sg45
g118
ssI7
(dp712
g16
I01
sg17
g90
sg19
I15
sg30
g128
sg45
g134
ssI8
(dp713
g16
I01
sg17
g90
sg19
g20
(g24
S'\x00\x00\x00\x00\x00\x00\x08\xc0'
p714
tp715
Rp716
sg30
g144
sg45
g150
ssI9
(dp717
g16
I01
sg17
g90
sg19
g20
(g24
S'D5l\xc20\x9c\x03\xc0'
p718
tp719
Rp720
sg30
g160
sg45
g166
ssI10
(dp721
g16
I01
sg17
g90
sg19
g20
(g24
S'V\xcc\x9d\x02d\x83\x03@'
p722
tp723
Rp724
sg30
g176
sg45
g182
ssI11
(dp725
g16
I01
sg17
g90
sg19
g20
(g24
S'\x00\x00\x00\x00\x00\x00\x1c\xc0'
p726
tp727
Rp728
sg30
g192
sg45
g198
sssg202
(dp729
sg204
g3
(g205
g5
Ntp730
Rp731
(dp732
g209
g691
sbsg210
(dp733
I1
(dp734
sI2
(dp735
sI3
(dp736
sI5
(dp737
I1
(dp738
g16
g224
sg225
g20
(g24
S'\x00\x00\x00\x00\x00\x00\x14\xc0'
p739
tp740
Rp741
ssI2
(dp742
g16
g224
sg225
g20
(g24
S'\xaeF\xbaWX\x1c\x15@'
p743
tp744
Rp745
ssI3
(dp746
g16
g224
sg225
I15
sssI6
(dp747
I1
(dp748
g16
g224
sg225
g20
(g24
S'\x8e\x06\xbe1\xea7!\xc0'
p749
tp750
Rp751
ssI2
(dp752
g16
g224
sg225
g20
(g24
S'\x00\x00\x00\x00\x00\x00\x08\xc0'
p753
tp754
Rp755
ssI3
(dp756
g16
g224
sg225
g20
(g24
S'\x94\xf0b\xb9|\x1f\x1d@'
p757
tp758
Rp759
sssI7
(dp760
I1
(dp761
g16
g224
sg225
g20
(g24
S'a\xd29\x1a\x7f\xbd$\xc0'
p762
tp763
Rp764
ssI2
(dp765
g16
g224
sg225
I-15
ssI3
(dp766
g16
g224
sg225
g20
(g24
S'\xde\xcbY\xa8\xd3K\xfe\xbf'
p767
tp768
Rp769
sssI8
(dp770
I1
(dp771
g16
g224
sg225
g20
(g24
S'\x00\x00\x00\x00\x00\x00.\xc0'
p772
tp773
Rp774
ssI2
(dp775
g16
g224
sg225
g20
(g24
S'\x92\xb0E\x1aH\x90-\xc0'
p776
tp777
Rp778
ssI3
(dp779
g16
g224
sg225
g20
(g24
S'\xf7e\xe1+\x88U$\xc0'
p780
tp781
Rp782
sssI9
(dp783
I8
(dp784
g16
g224
sg225
I15
ssI5
(dp785
g16
g224
sg225
g20
(g24
S'\x00\x00\x00\x00\x00\x00\x14@'
p786
tp787
Rp788
ssI6
(dp789
g16
g224
sg225
g20
(g24
S'\x00\x00\x00\x00\x00\x00\x1c\xc0'
p790
tp791
Rp792
ssI7
(dp793
g16
g224
sg225
g20
(g24
S'\xa9\xed\xe4\xfe\x15<"@'
p794
tp795
Rp796
sssI10
(dp797
I8
(dp798
g16
g224
sg225
g20
(g24
S'\xd2m\x02\xaf\xfaL"\xc0'
p799
tp800
Rp801
ssI5
(dp802
g16
g224
sg225
g20
(g24
S'\xfd\xb4\xaa\x87nS @'
p803
tp804
Rp805
ssI6
(dp806
g16
g224
sg225
g20
(g24
S'\x00\x00\x00\x00\x00\x00*@'
p807
tp808
Rp809
ssI7
(dp810
g16
g224
sg225
g20
(g24
S'\x00\x00\x00\x00\x00\x00*@'
p811
tp812
Rp813
sssI11
(dp814
I5
(dp815
g16
g224
sg225
I15
ssI6
(dp816
g16
g224
sg225
g20
(g24
S"\xf9d C[$'@"
p817
tp818
Rp819
ssI7
(dp820
g16
g224
sg225
I15
ssssg300
(dp821
I1
(dp822
I8
g771
sI5
g738
sI6
g748
sI7
g761
ssI2
(dp823
I8
g775
sI5
g742
sI6
g752
sI7
g765
ssI3
(dp824
I8
g779
sI5
g746
sI6
g756
sI7
g766
ssI5
(dp825
I9
g785
sI10
g802
sI11
g815
ssI6
(dp826
I9
g789
sI10
g806
sI11
g816
ssI7
(dp827
I9
g793
sI10
g810
sI11
g820
ssI8
(dp828
I9
g784
sI10
g798
ssI9
(dp829
sI10
(dp830
sI11
(dp831
ssg312
g821
sg313
g10
sbag3
(g4
g5
Ntp832
Rp833
(dp834
g9
g10
sg11
g10
sg12
g10
sg13
(dp835
I1
(dp836
g16
I01
sg17
g18
sg19
g695
sg30
g36
sg45
g48
ssI2
(dp837
g16
I01
sg17
g18
sg19
g699
sg30
g63
sg45
g69
ssI3
(dp838
g16
I01
sg17
g18
sg19
g703
sg30
g79
sg45
g85
ssI5
(dp839
g16
I01
sg17
g90
sg19
I-15
sg30
g96
sg45
g102
ssI6
(dp840
g16
I01
sg17
g90
sg19
g711
sg30
g112
sg45
g118
ssI7
(dp841
g16
I01
sg17
g90
sg19
I15
sg30
g128
sg45
g134
ssI8
(dp842
g16
I01
sg17
g90
sg19
g716
sg30
g144
sg45
g150
ssI9
(dp843
g16
I01
sg17
g90
sg19
g20
(g24
S'\x1f\xc9\xb8\xad\x194\x04\xc0'
p844
tp845
Rp846
sg30
g160
sg45
g166
ssI10
(dp847
g16
I01
sg17
g90
sg19
g724
sg30
g176
sg45
g182
ssI11
(dp848
g16
I01
sg17
g90
sg19
g728
sg30
g192
sg45
g198
sssg202
(dp849
sg204
g3
(g205
g5
Ntp850
Rp851
(dp852
g209
g835
sbsg210
(dp853
I1
(dp854
sI2
(dp855
sI3
(dp856
sI5
(dp857
I1
(dp858
g16
g224
sg225
g741
ssI2
(dp859
g16
g224
sg225
g20
(g24
S'\x10\xa8\x9c9\x90\xf3\x19@'
p860
tp861
Rp862
ssI3
(dp863
g16
g224
sg225
I15
sssI6
(dp864
I1
(dp865
g16
g224
sg225
g751
ssI2
(dp866
g16
g224
sg225
g20
(g24
S'\x8c.l^&\x1f\x0c\xc0'
p867
tp868
Rp869
ssI3
(dp870
g16
g224
sg225
g759
sssI7
(dp871
I1
(dp872
g16
g224
sg225
g764
ssI2
(dp873
g16
g224
sg225
I-15
ssI3
(dp874
g16
g224
sg225
g20
(g24
S'R\xce\xf8\xf1\x02\xab\x15\xc0'
p875
tp876
Rp877
sssI8
(dp878
I1
(dp879
g16
g224
sg225
g774
ssI2
(dp880
g16
g224
sg225
g20
(g24
S'\x00\x00\x00\x00\x00\x00.\xc0'
p881
tp882
Rp883
ssI3
(dp884
g16
g224
sg225
g782
sssI9
(dp885
I8
(dp886
g16
g224
sg225
I15
ssI5
(dp887
g16
g224
sg225
g788
ssI6
(dp888
g16
g224
sg225
g792
ssI7
(dp889
g16
g224
sg225
g796
sssI10
(dp890
I8
(dp891
g16
g224
sg225
g801
ssI5
(dp892
g16
g224
sg225
g805
ssI6
(dp893
g16
g224
sg225
g809
ssI7
(dp894
g16
g224
sg225
g813
sssI11
(dp895
I5
(dp896
g16
g224
sg225
g20
(g24
S'j\xe1\x8b\x9a\xdb+&@'
p897
tp898
Rp899
ssI6
(dp900
g16
g224
sg225
g20
(g24
S'\xe4\xed\x9f\xbcp\x17-@'
p901
tp902
Rp903
ssI7
(dp904
g16
g224
sg225
I15
ssssg300
(dp905
I1
(dp906
I8
g879
sI5
g858
sI6
g865
sI7
g872
ssI2
(dp907
I8
g880
sI5
g859
sI6
g866
sI7
g873
ssI3
(dp908
I8
g884
sI5
g863
sI6
g870
sI7
g874
ssI5
(dp909
I9
g887
sI10
g892
sI11
g896
ssI6
(dp910
I9
g888
sI10
g893
sI11
g900
ssI7
(dp911
I9
g889
sI10
g894
sI11
g904
ssI8
(dp912
I9
g886
sI10
g891
ssI9
(dp913
sI10
(dp914
sI11
(dp915
ssg312
g905
sg313
g10
sbaNaNaNaNaa(lp916
g3
(g4
g5
Ntp917
Rp918
(dp919
g9
g10
sg11
g10
sg12
g10
sg13
(dp920
I1
(dp921
g16
I01
sg17
g18
sg19
g29
sg30
g36
sg45
g48
ssI2
(dp922
g16
I01
sg17
g18
sg19
g60
sg30
g63
sg45
g69
ssI3
(dp923
g16
I01
sg17
g18
sg19
g76
sg30
g79
sg45
g85
ssI5
(dp924
g16
I01
sg17
g90
sg19
g20
(g24
S'\x10~\xad\xedX\xc8\xfe?'
p925
tp926
Rp927
sg30
g96
sg45
g102
ssI6
(dp928
g16
I01
sg17
g90
sg19
g20
(g24
S'Vbu\x8a\x11\x89 @'
p929
tp930
Rp931
sg30
g112
sg45
g118
ssI7
(dp932
g16
I01
sg17
g90
sg19
g20
(g24
S'9\x82n[\x11S\x1a@'
p933
tp934
Rp935
sg30
g128
sg45
g134
ssI8
(dp936
g16
I01
sg17
g90
sg19
g333
sg30
g144
sg45
g150
ssI9
(dp937
g16
I01
sg17
g90
sg19
g20
(g24
S'\xbb\xdb\xb6a\xd6\xc2\x0e@'
p938
tp939
Rp940
sg30
g160
sg45
g166
ssI10
(dp941
g16
I01
sg17
g90
sg19
I15
sg30
g176
sg45
g182
ssI11
(dp942
g16
I01
sg17
g90
sg19
g20
(g24
S'\x1ca\xf8.\x1f\x9c\xe0\xbf'
p943
tp944
Rp945
sg30
g192
sg45
g198
sssg202
(dp946
sg204
g3
(g205
g5
Ntp947
Rp948
(dp949
g209
g920
sbsg210
(dp950
I1
(dp951
sI2
(dp952
sI3
(dp953
sI5
(dp954
I3
(dp955
g16
g224
sg225
g20
(g24
S'p\x83\xad\x91|\xb1\x10\xc0'
p956
tp957
Rp958
sssI6
(dp959
I2
(dp960
g16
g224
sg225
g20
(g24
S'k@c\x12\xb5%\x1e@'
p961
tp962
Rp963
ssI3
(dp964
g16
g224
sg225
g20
(g24
S'\x16\xb8J\xb7\xad\xdf(\xc0'
p965
tp966
Rp967
sssI7
(dp968
I1
(dp969
g16
g224
sg225
I-15
ssI2
(dp970
g16
g224
sg225
g20
(g24
S'\r\xc0\x94 \xaa1\x0f\xc0'
p971
tp972
Rp973
sssI8
(dp974
I1
(dp975
g16
g224
sg225
g20
(g24
S'wd\xdf\xaf/;\xf6\xbf'
p976
tp977
Rp978
ssI2
(dp979
g16
g224
sg225
g20
(g24
S't\xcb\xf1\xcb\xc9\xbf%\xc0'
p980
tp981
Rp982
sssI9
(dp983
I8
(dp984
g16
g224
sg225
g20
(g24
S"\xc3\xd6\xf9%\xa0j'@"
p985
tp986
Rp987
ssI5
(dp988
g16
g224
sg225
g20
(g24
S'|Y\x93nzz\x1f@'
p989
tp990
Rp991
ssI6
(dp992
g16
g224
sg225
g20
(g24
S'\xd9\x0c\xaa\x00\xaf]\x1e\xc0'
p993
tp994
Rp995
sssI10
(dp996
I5
(dp997
g16
g224
sg225
g20
(g24
S'\x18TE\xda\xc2\xcc\x13\xc0'
p998
tp999
Rp1000
ssI6
(dp1001
g16
g224
sg225
g20
(g24
S'^y_\xa6z\xfd \xc0'
p1002
tp1003
Rp1004
ssI7
(dp1005
g16
g224
sg225
g20
(g24
S'\xcc\xd1:"\xb3\x01%\xc0'
p1006
tp1007
Rp1008
sssI11
(dp1009
I8
(dp1010
g16
g224
sg225
g20
(g24
S"f\x8bY\xb32 '@"
p1011
tp1012
Rp1013
ssI5
(dp1014
g16
g224
sg225
I15
ssI6
(dp1015
g16
g224
sg225
g20
(g24
S'\x05\xe4z\xdc\xb1\x19(\xc0'
p1016
tp1017
Rp1018
ssssg300
(dp1019
I1
(dp1020
I8
g975
sI7
g969
ssI2
(dp1021
I8
g979
sI6
g960
sI7
g970
ssI3
(dp1022
I5
g955
sI6
g964
ssI5
(dp1023
I9
g988
sI10
g997
sI11
g1014
ssI6
(dp1024
I9
g992
sI10
g1001
sI11
g1015
ssI7
(dp1025
I10
g1005
ssI8
(dp1026
I9
g984
sI11
g1010
ssI9
(dp1027
sI10
(dp1028
sI11
(dp1029
ssg312
g1019
sg313
g10
sbag3
(g4
g5
Ntp1030
Rp1031
(dp1032
g9
g10
sg11
g10
sg12
g10
sg13
(dp1033
I1
(dp1034
g16
I01
sg17
g18
sg19
g29
sg30
g36
sg45
g48
ssI2
(dp1035
g16
I01
sg17
g18
sg19
g60
sg30
g63
sg45
g69
ssI3
(dp1036
g16
I01
sg17
g18
sg19
g76
sg30
g79
sg45
g85
ssI5
(dp1037
g16
I01
sg17
g90
sg19
g927
sg30
g96
sg45
g102
ssI6
(dp1038
g16
I01
sg17
g90
sg19
g931
sg30
g112
sg45
g118
ssI7
(dp1039
g16
I01
sg17
g90
sg19
g20
(g24
S'\xe9\xb7\x98\xa2\xeb)\x19@'
p1040
tp1041
Rp1042
sg30
g128
sg45
g134
ssI8
(dp1043
g16
I01
sg17
g90
sg19
g333
sg30
g144
sg45
g150
ssI9
(dp1044
g16
I01
sg17
g90
sg19
g20
(g24
S'\x1bq\x91\x82\xcf\x8c\x08@'
p1045
tp1046
Rp1047
sg30
g160
sg45
g166
ssI10
(dp1048
g16
I01
sg17
g90
sg19
I15
sg30
g176
sg45
g182
ssI11
(dp1049
g16
I01
sg17
g90
sg19
g20
(g24
S'X7\xc0-\x91\x99\xf9\xbf'
p1050
tp1051
Rp1052
sg30
g192
sg45
g198
sssg202
(dp1053
sg204
g3
(g205
g5
Ntp1054
Rp1055
(dp1056
g209
g1033
sbsg210
(dp1057
I1
(dp1058
sI2
(dp1059
sI3
(dp1060
sI5
(dp1061
I3
(dp1062
g16
g224
sg225
g958
sssI6
(dp1063
I2
(dp1064
g16
g224
sg225
g20
(g24
S'\xf4\x82\xa1\xed\xd3+"@'
p1065
tp1066
Rp1067
ssI3
(dp1068
g16
g224
sg225
g20
(g24
S'\xc2\xbc\xb0\x84.\xd6+\xc0'
p1069
tp1070
Rp1071
sssI7
(dp1072
I1
(dp1073
g16
g224
sg225
I-15
ssI2
(dp1074
g16
g224
sg225
g973
sssI8
(dp1075
I1
(dp1076
g16
g224
sg225
g978
ssI2
(dp1077
g16
g224
sg225
g982
sssI9
(dp1078
I8
(dp1079
g16
g224
sg225
g987
ssI5
(dp1080
g16
g224
sg225
g991
ssI6
(dp1081
g16
g224
sg225
g20
(g24
S"?\xa9\xcd\\\xc0\xc6'\xc0"
p1082
tp1083
Rp1084
sssI10
(dp1085
I5
(dp1086
g16
g224
sg225
g20
(g24
S'\xbb^\x9a\xb4}\xf5\x12\xc0'
p1087
tp1088
Rp1089
ssI6
(dp1090
g16
g224
sg225
g1004
ssI7
(dp1091
g16
g224
sg225
g20
(g24
S'\xaa9\x19\x91\xc1\xec,\xc0'
p1092
tp1093
Rp1094
sssI11
(dp1095
I8
(dp1096
g16
g224
sg225
g1013
ssI5
(dp1097
g16
g224
sg225
I15
ssI6
(dp1098
g16
g224
sg225
g1018
ssssg300
(dp1099
I1
(dp1100
I8
g1076
sI7
g1073
ssI2
(dp1101
I8
g1077
sI6
g1064
sI7
g1074
ssI3
(dp1102
I5
g1062
sI6
g1068
ssI5
(dp1103
I9
g1080
sI10
g1086
sI11
g1097
ssI6
(dp1104
I9
g1081
sI10
g1090
sI11
g1098
ssI7
(dp1105
I10
g1091
ssI8
(dp1106
I9
g1079
sI11
g1096
ssI9
(dp1107
sI10
(dp1108
sI11
(dp1109
ssg312
g1099
sg313
g10
sbag3
(g4
g5
Ntp1110
Rp1111
(dp1112
g9
g10
sg11
g10
sg12
g10
sg13
(dp1113
I1
(dp1114
g16
I01
sg17
g18
sg19
g20
(g24
S'\x00\x00\x00\x00\x00\x00\x00\x00'
p1115
tp1116
Rp1117
sg30
g36
sg45
g48
ssI2
(dp1118
g16
I01
sg17
g18
sg19
g20
(g24
S'\x00\x00\x00\x00\x00\x00\x00\x00'
p1119
tp1120
Rp1121
sg30
g63
sg45
g69
ssI3
(dp1122
g16
I01
sg17
g18
sg19
g20
(g24
S'\x00\x00\x00\x00\x00\x00\x00\x00'
p1123
tp1124
Rp1125
sg30
g79
sg45
g85
ssI5
(dp1126
g16
I01
sg17
g90
sg19
g20
(g24
S'\n\xcc9\xed\xa6\x99\x07@'
p1127
tp1128
Rp1129
sg30
g96
sg45
g102
ssI6
(dp1130
g16
I01
sg17
g90
sg19
g20
(g24
S'\xd4\x9c\x8f\x1e=\xb8*@'
p1131
tp1132
Rp1133
sg30
g112
sg45
g118
ssI7
(dp1134
g16
I01
sg17
g90
sg19
g20
(g24
S'\x00\x00\x00\x00\x00\x00\x08\xc0'
p1135
tp1136
Rp1137
sg30
g128
sg45
g134
ssI8
(dp1138
g16
I01
sg17
g90
sg19
g20
(g24
S'\x00\x00\x00\x00\x00\x00\xf0\xbf'
p1139
tp1140
Rp1141
sg30
g144
sg45
g150
ssI9
(dp1142
g16
I01
sg17
g90
sg19
g20
(g24
S'\x80!\xd3-\n\xc1\xb7\xbf'
p1143
tp1144
Rp1145
sg30
g160
sg45
g166
ssI10
(dp1146
g16
I01
sg17
g90
sg19
g20
(g24
S'\x00\x00\x00\x00\x00\x00.@'
p1147
tp1148
Rp1149
sg30
g176
sg45
g182
ssI11
(dp1150
g16
I01
sg17
g90
sg19
g20
(g24
S'\x00\x00\x00\x00\x00\x00\x1c@'
p1151
tp1152
Rp1153
sg30
g192
sg45
g198
sssg202
(dp1154
sg204
g3
(g205
g5
Ntp1155
Rp1156
(dp1157
g209
g1113
sbsg210
(dp1158
I1
(dp1159
sI2
(dp1160
sI3
(dp1161
sI5
(dp1162
I1
(dp1163
g16
g224
sg225
g20
(g24
S'\x00\x00\x00\x00\x00\x00*\xc0'
p1164
tp1165
Rp1166
ssI2
(dp1167
g16
g224
sg225
g20
(g24
S'\x00\x00\x00\x00\x00\x00\x1c\xc0'
p1168
tp1169
Rp1170
ssI3
(dp1171
g16
g224
sg225
g20
(g24
S'\x00\x00\x00\x00\x00\x00\x1c@'
p1172
tp1173
Rp1174
sssI6
(dp1175
I1
(dp1176
g16
g224
sg225
g20
(g24
S'p(l\x05\xf74\xe1?'
p1177
tp1178
Rp1179
ssI2
(dp1180
g16
g224
sg225
g20
(g24
S'\x00\x00\x00\x00\x00\x00&@'
p1181
tp1182
Rp1183
ssI3
(dp1184
g16
g224
sg225
g20
(g24
S'\xd7\\u\xfe1^\x1d\xc0'
p1185
tp1186
Rp1187
sssI7
(dp1188
I2
(dp1189
g16
g224
sg225
g20
(g24
S'\x00\x00\x00\x00\x00\x00&@'
p1190
tp1191
Rp1192
ssI3
(dp1193
g16
g224
sg225
I-15
sssI8
(dp1194
I1
(dp1195
g16
g224
sg225
g20
(g24
S'\x00\x00\x00\x00\x00\x00.@'
p1196
tp1197
Rp1198
ssI2
(dp1199
g16
g224
sg225
g20
(g24
S'Q\xf4i\xf9y\xce\x19\xc0'
p1200
tp1201
Rp1202
ssI3
(dp1203
g16
g224
sg225
g20
(g24
S'~\xc9$\x13\xca\xb5)@'
p1204
tp1205
Rp1206
sssI9
(dp1207
I5
(dp1208
g16
g224
sg225
g20
(g24
S'\x00\x00\x00\x00\x00\x00\x14@'
p1209
tp1210
Rp1211
ssI7
(dp1212
g16
g224
sg225
g20
(g24
S'K\xe5K&\xcb\xb0"\xc0'
p1213
tp1214
Rp1215
sssI10
(dp1216
I5
(dp1217
g16
g224
sg225
g20
(g24
S'\x00\x00\x00\x00\x00\x00*@'
p1218
tp1219
Rp1220
ssI7
(dp1221
g16
g224
sg225
g20
(g24
S'\xbb\x8d\xc0\x98\x10:\x11@'
p1222
tp1223
Rp1224
sssI11
(dp1225
I5
(dp1226
g16
g224
sg225
g20
(g24
S'\x00\x00\x00\x00\x00\x00*\xc0'
p1227
tp1228
Rp1229
ssI6
(dp1230
g16
g224
sg225
g20
(g24
S'\x00\x00\x00\x00\x00\x00\x14\xc0'
p1231
tp1232
Rp1233
ssI7
(dp1234
g16
g224
sg225
g20
(g24
S'\x00\x00\x00\x00\x00\x00\xf0\xbf'
p1235
tp1236
Rp1237
ssssg300
(dp1238
I1
(dp1239
I8
g1195
sI5
g1163
sI6
g1176
ssI2
(dp1240
I8
g1199
sI5
g1167
sI6
g1180
sI7
g1189
ssI3
(dp1241
I8
g1203
sI5
g1171
sI6
g1184
sI7
g1193
ssI5
(dp1242
I9
g1208
sI10
g1217
sI11
g1226
ssI6
(dp1243
I11
g1230
ssI7
(dp1244
I9
g1212
sI10
g1221
sI11
g1234
ssI8
(dp1245
sI9
(dp1246
sI10
(dp1247
sI11
(dp1248
ssg312
g1238
sg313
g10
sbaNaNaNaNaNaNaNaa(lp1249
NaNaNaNaNaNaNaNaNaNaa(lp1250
NaNaNaNaNaNaNaNaNaNaa(lp1251
NaNaNaNaNaNaNaNaNaNaa(lp1252
NaNaNaNaNaNaNaNaNaNaa(lp1253
NaNaNaNaNaNaNaNaNaNaa(lp1254
NaNaNaNaNaNaNaNaNaNaa(lp1255
NaNaNaNaNaNaNaNaNaNaa.