(lp0
(lp1
NaNaNaNaNaNaNaNaNaNaa(lp2
ccopy_reg
_reconstructor
p3
(cnetworkx.classes.digraph
DiGraph
p4
c__builtin__
object
p5
Ntp6
Rp7
(dp8
S'adjlist_inner_dict_factory'
p9
c__builtin__
dict
p10
sS'node_dict_factory'
p11
g10
sS'edge_attr_dict_factory'
p12
g10
sS'_node'
p13
(dp14
I1
(dp15
S'active'
p16
I01
sS'ActFunc'
p17
cNeuralNet.activations
noFunc
p18
sS'bias'
p19
cnumpy.core.multiarray
scalar
p20
(cnumpy
dtype
p21
(S'f8'
p22
I0
I1
tp23
Rp24
(I3
S'<'
p25
NNNI-1
I-1
I0
tp26
bS'\x00\x00\x00\x00\x00\x00\x00\x00'
p27
tp28
Rp29
sS'pos'
p30
cnumpy.core.multiarray
_reconstruct
p31
(cnumpy
ndarray
p32
(I0
tp33
S'b'
p34
tp35
Rp36
(I1
(I2
tp37
g21
(S'i8'
p38
I0
I1
tp39
Rp40
(I3
S'<'
p41
NNNI-1
I-1
I0
tp42
bI00
S'\x00\x00\x00\x00\x00\x00\x00\x00\x00\x00\x00\x00\x00\x00\x00\x00'
p43
tp44
bsS'pos1'
p45
g31
(g32
(I0
tp46
g34
tp47
Rp48
(I1
(I2
tp49
g21
(S'f8'
p50
I0
I1
tp51
Rp52
(I3
S'<'
p53
NNNI-1
I-1
I0
tp54
bI00
S'\x9a\x99\x99\x99\x99\x99\xb9?\x9a\x99\x99\x99\x99\x99\xb9?'
p55
tp56
bssI2
(dp57
g16
I01
sg17
g18
sg19
g20
(g24
S'\x00\x00\x00\x00\x00\x00\x00\x00'
p58
tp59
Rp60
sg30
g31
(g32
(I0
tp61
g34
tp62
Rp63
(I1
(I2
tp64
g40
I00
S'\x01\x00\x00\x00\x00\x00\x00\x00\x00\x00\x00\x00\x00\x00\x00\x00'
p65
tp66
bsg45
g31
(g32
(I0
tp67
g34
tp68
Rp69
(I1
(I2
tp70
g52
I00
S'\x9a\x99\x99\x99\x99\x99\xf1?\x9a\x99\x99\x99\x99\x99\xb9?'
p71
tp72
bssI3
(dp73
g16
I01
sg17
g18
sg19
g20
(g24
S'\x00\x00\x00\x00\x00\x00\x00\x00'
p74
tp75
Rp76
sg30
g31
(g32
(I0
tp77
g34
tp78
Rp79
(I1
(I2
tp80
g40
I00
S'\x02\x00\x00\x00\x00\x00\x00\x00\x00\x00\x00\x00\x00\x00\x00\x00'
p81
tp82
bsg45
g31
(g32
(I0
tp83
g34
tp84
Rp85
(I1
(I2
tp86
g52
I00
S'\xcd\xcc\xcc\xcc\xcc\xcc\x00@\x9a\x99\x99\x99\x99\x99\xb9?'
p87
tp88
bssI5
(dp89
g16
I01
sg17
cNeuralNet.activations
tanh
p90
sg19
g20
(g24
S'u\xc0k\xb7\xa8\xf3\x18@'
p91
tp92
Rp93
sg30
g31
(g32
(I0
tp94
g34
tp95
Rp96
(I1
(I2
tp97
g40
I00
S'\x00\x00\x00\x00\x00\x00\x00\x00\x01\x00\x00\x00\x00\x00\x00\x00'
p98
tp99
bsg45
g31
(g32
(I0
tp100
g34
tp101
Rp102
(I1
(I2
tp103
g52
I00
S'\x9a\x99\x99\x99\x99\x99\xb9?\x9a\x99\x99\x99\x99\x99\xf1?'
p104
tp105
bssI6
(dp106
g16
I01
sg17
g90
sg19
g20
(g24
S'\xec\xed\xab`\xf0\x1e$@'
p107
tp108
Rp109
sg30
g31
(g32
(I0
tp110
g34
tp111
Rp112
(I1
(I2
tp113
g40
I00
S'\x01\x00\x00\x00\x00\x00\x00\x00\x01\x00\x00\x00\x00\x00\x00\x00'
p114
tp115
bsg45
g31
(g32
(I0
tp116
g34
tp117
Rp118
(I1
(I2
tp119
g52
I00
S'\x9a\x99\x99\x99\x99\x99\xf1?\x9a\x99\x99\x99\x99\x99\xf1?'
p120
tp121
bssI7
(dp122
g16
I01
sg17
g90
sg19
g20
(g24
S'?`\x923_F\x0b@'
p123
tp124
Rp125
sg30
g31
(g32
(I0
tp126
g34
tp127
Rp128
(I1
(I2
tp129
g40
I00
S'\x02\x00\x00\x00\x00\x00\x00\x00\x01\x00\x00\x00\x00\x00\x00\x00'
p130
tp131
bsg45
g31
(g32
(I0
tp132
g34
tp133
Rp134
(I1
(I2
tp135
g52
I00
S'\xcd\xcc\xcc\xcc\xcc\xcc\x00@\x9a\x99\x99\x99\x99\x99\xf1?'
p136
tp137
bssI8
(dp138
g16
I01
sg17
g90
sg19
g20
(g24
S'\x1ecwI\xbdy\x10\xc0'
p139
tp140
Rp141
sg30
g31
(g32
(I0
tp142
g34
tp143
Rp144
(I1
(I2
tp145
g40
I00
S'\x03\x00\x00\x00\x00\x00\x00\x00\x01\x00\x00\x00\x00\x00\x00\x00'
p146
tp147
bsg45
g31
(g32
(I0
tp148
g34
tp149
Rp150
(I1
(I2
tp151
g52
I00
S'\xcd\xcc\xcc\xcc\xcc\xcc\x08@\x9a\x99\x99\x99\x99\x99\xf1?'
p152
tp153
bssI9
(dp154
g16
I01
sg17
g90
sg19
g20
(g24
S' \xe1\xa3\x13\xba|\x1f@'
p155
tp156
Rp157
sg30
g31
(g32
(I0
tp158
g34
tp159
Rp160
(I1
(I2
tp161
g40
I00
S'\x00\x00\x00\x00\x00\x00\x00\x00\x02\x00\x00\x00\x00\x00\x00\x00'
p162
tp163
bsg45
g31
(g32
(I0
tp164
g34
tp165
Rp166
(I1
(I2
tp167
g52
I00
S'\x9a\x99\x99\x99\x99\x99\xb9?\xcd\xcc\xcc\xcc\xcc\xcc\x00@'
p168
tp169
bssI10
(dp170
g16
I01
sg17
g90
sg19
g20
(g24
S"l\xd0 \x1d\x1aI'@"
p171
tp172
Rp173
sg30
g31
(g32
(I0
tp174
g34
tp175
Rp176
(I1
(I2
tp177
g40
I00
S'\x01\x00\x00\x00\x00\x00\x00\x00\x02\x00\x00\x00\x00\x00\x00\x00'
p178
tp179
bsg45
g31
(g32
(I0
tp180
g34
tp181
Rp182
(I1
(I2
tp183
g52
I00
S'\x9a\x99\x99\x99\x99\x99\xf1?\xcd\xcc\xcc\xcc\xcc\xcc\x00@'
p184
tp185
bssI11
(dp186
g16
I01
sg17
g90
sg19
g20
(g24
S']\xbd$E\x1f/"\xc0'
p187
tp188
Rp189
sg30
g31
(g32
(I0
tp190
g34
tp191
Rp192
(I1
(I2
tp193
g40
I00
S'\x02\x00\x00\x00\x00\x00\x00\x00\x02\x00\x00\x00\x00\x00\x00\x00'
p194
tp195
bsg45
g31
(g32
(I0
tp196
g34
tp197
Rp198
(I1
(I2
tp199
g52
I00
S'\xcd\xcc\xcc\xcc\xcc\xcc\x00@\xcd\xcc\xcc\xcc\xcc\xcc\x00@'
p200
tp201
bsssS'graph'
p202
(dp203
sS'nodes'
p204
g3
(cnetworkx.classes.reportviews
NodeView
p205
g5
Ntp206
Rp207
(dp208
S'_nodes'
p209
g14
sbsS'_pred'
p210
(dp211
I1
(dp212
sI2
(dp213
sI3
(dp214
sI5
(dp215
I3
(dp216
g16
g20
(g21
(S'b1'
p217
I0
I1
tp218
Rp219
(I3
S'|'
p220
NNNI-1
I-1
I0
tp221
bS'\x01'
p222
tp223
Rp224
sS'weight'
p225
g20
(g24
S'\tq\xf0\x02\x1f\xea\x1b\xc0'
p226
tp227
Rp228
sssI6
(dp229
I2
(dp230
g16
g224
sg225
g20
(g24
S'Y?(x\xd0\x89+@'
p231
tp232
Rp233
ssI3
(dp234
g16
g224
sg225
g20
(g24
S'\xda}}\xfb^t&\xc0'
p235
tp236
Rp237
sssI7
(dp238
I1
(dp239
g16
g224
sg225
I-15
ssI2
(dp240
g16
g224
sg225
g20
(g24
S'hn\xce\x02\x83\x8b\x15\xc0'
p241
tp242
Rp243
sssI8
(dp244
I1
(dp245
g16
g224
sg225
g20
(g24
S'\xb2\xfanZ1\x90\xf6?'
p246
tp247
Rp248
ssI2
(dp249
g16
g224
sg225
g20
(g24
S"\\\xf1\x85\xd4\xac\x04'\xc0"
p250
tp251
Rp252
ssI3
(dp253
g16
g224
sg225
g20
(g24
S'j"\xae\xe7\xaa\x98\x1c\xc0'
p254
tp255
Rp256
sssI9
(dp257
I8
(dp258
g16
g224
sg225
g20
(g24
S'\x1c#\xc1\x0b\t\x1d\x16@'
p259
tp260
Rp261
ssI5
(dp262
g16
g224
sg225
g20
(g24
S'4G\x9a\x90\xe5C\xec\xbf'
p263
tp264
Rp265
ssI6
(dp266
g16
g224
sg225
g20
(g24
S'\x8d\x94S\xe8mD\x1c\xc0'
p267
tp268
Rp269
sssI10
(dp270
I5
(dp271
g16
g224
sg225
g20
(g24
S'\x1c{\x08\xfc\xf1\xa9\xc3?'
p272
tp273
Rp274
ssI6
(dp275
g16
g224
sg225
g20
(g24
S'&3W\x8c$l\x06\xc0'
p276
tp277
Rp278
ssI7
(dp279
g16
g224
sg225
g20
(g24
S'\x94e\xd6[_\xc3(\xc0'
p280
tp281
Rp282
sssI11
(dp283
I8
(dp284
g16
g224
sg225
g20
(g24
S'\xbe;p\xe3P/\x17@'
p285
tp286
Rp287
ssI5
(dp288
g16
g224
sg225
I15
ssI6
(dp289
g16
g224
sg225
g20
(g24
S'h1\xe3Ea\xbd$\xc0'
p290
tp291
Rp292
ssI7
(dp293
g16
g224
sg225
g20
(g24
S'\xe8\xe87\xf9`$\x02@'
p294
tp295
Rp296
ssssS'_succ'
p297
(dp298
I1
(dp299
I8
g245
sI7
g239
ssI2
(dp300
I8
g249
sI6
g230
sI7
g240
ssI3
(dp301
I8
g253
sI5
g216
sI6
g234
ssI5
(dp302
I9
g262
sI10
g271
sI11
g288
ssI6
(dp303
I9
g266
sI10
g275
sI11
g289
ssI7
(dp304
I10
g279
sI11
g293
ssI8
(dp305
I9
g258
sI11
g284
ssI9
(dp306
sI10
(dp307
sI11
(dp308
ssS'_adj'
p309
g298
sS'adjlist_outer_dict_factory'
p310
g10
sbag3
(g4
g5
Ntp311
Rp312
(dp313
g9
g10
sg11
g10
sg12
g10
sg13
(dp314
I1
(dp315
g16
I01
sg17
g18
sg19
g29
sg30
g36
sg45
g48
ssI2
(dp316
g16
I01
sg17
g18
sg19
g60
sg30
g63
sg45
g69
ssI3
(dp317
g16
I01
sg17
g18
sg19
g76
sg30
g79
sg45
g85
ssI5
(dp318
g16
I01
sg17
g90
sg19
g20
(g24
S'N\xf0\x11\x90P\x8d\x1d@'
p319
tp320
Rp321
sg30
g96
sg45
g102
ssI6
(dp322
g16
I01
sg17
g90
sg19
g109
sg30
g112
sg45
g118
ssI7
(dp323
g16
I01
sg17
g90
sg19
g125
sg30
g128
sg45
g134
ssI8
(dp324
g16
I01
sg17
g90
sg19
g20
(g24
S'J\xc4\xf0\xbd\x8a\xe1\x10\xc0'
p325
tp326
Rp327
sg30
g144
sg45
g150
ssI9
(dp328
g16
I01
sg17
g90
sg19
g20
(g24
S'\xddP\xf7#\x0b\x04\x0f@'
p329
tp330
Rp331
sg30
g160
sg45
g166
ssI10
(dp332
g16
I01
sg17
g90
sg19
I15
sg30
g176
sg45
g182
ssI11
(dp333
g16
I01
sg17
g90
sg19
g189
sg30
g192
sg45
g198
sssg202
(dp334
sg204
g3
(g205
g5
Ntp335
Rp336
(dp337
g209
g314
sbsg210
(dp338
I1
(dp339
sI2
(dp340
sI3
(dp341
sI5
(dp342
I2
(dp343
S'active'
p344
I01
sS'weight'
p345
g20
(g24
S'\xc6\x02\x7f\x14\x87\xb9\xfa\xbf'
p346
tp347
Rp348
ssI3
(dp349
g16
g224
sg225
g20
(g24
S'\x18<;\xc0\xd3\xc3"\xc0'
p350
tp351
Rp352
sssI6
(dp353
I1
(dp354
g344
I01
sg345
g20
(g24
S'"\x8f\x8c\xdb|\xa6%@'
p355
tp356
Rp357
ssI2
(dp358
g16
g224
sg225
g20
(g24
S'\x0f\x1b\xe8\xb3Z\x8e*@'
p359
tp360
Rp361
ssI3
(dp362
g16
g224
sg225
I-15
sssI7
(dp363
I1
(dp364
g16
g224
sg225
g20
(g24
S'5P*\x12\xd6++\xc0'
p365
tp366
Rp367
ssI2
(dp368
g16
g224
sg225
g20
(g24
S'\x80;\x1a\x88*a\x11\xc0'
p369
tp370
Rp371
sssI8
(dp372
I1
(dp373
g16
g224
sg225
g20
(g24
S'\x05\x98\xde\xcc\xdd\xf3\xf1\xbf'
p374
tp375
Rp376
ssI2
(dp377
g16
g224
sg225
g20
(g24
S'\xd4\x88\xe1$\xc6\x97-\xc0'
p378
tp379
Rp380
sssI9
(dp381
I8
(dp382
g16
g224
sg225
g20
(g24
S'\xf2\xf4.?\xb5C\x04@'
p383
tp384
Rp385
ssI5
(dp386
g16
g224
sg225
g20
(g24
S'"\xc4\x800\xa2\x15\xf9?'
p387
tp388
Rp389
ssI6
(dp390
g16
g224
sg225
g20
(g24
S'\x82\x1eN\x856\xf8\x18\xc0'
p391
tp392
Rp393
sssI10
(dp394
I8
(dp395
S'active'
p396
I01
sS'weight'
p397
g20
(g24
S'\xac\xd9*V\xfe\xd6\xf2\xbf'
p398
tp399
Rp400
ssI5
(dp401
g16
g224
sg225
g20
(g24
S'f\x07u(0\xf5\xf8?'
p402
tp403
Rp404
ssI6
(dp405
g16
g224
sg225
g20
(g24
S'\xea\xf2\x91iY\xae$\xc0'
p406
tp407
Rp408
ssI7
(dp409
g16
g224
sg225
I-15
sssI11
(dp410
I8
(dp411
g16
g224
sg225
g20
(g24
S'\xca\xcc(\xcbi\x1a\x12@'
p412
tp413
Rp414
ssI5
(dp415
g16
g224
sg225
I15
ssI6
(dp416
g16
g224
sg225
g20
(g24
S'4\xf2\x15q\x19L+\xc0'
p417
tp418
Rp419
ssI7
(dp420
g16
g224
sg225
g20
(g24
S'T\xd0\xc95\xdc\xaf\x1f@'
p421
tp422
Rp423
ssssg297
(dp424
I1
(dp425
I8
g373
sI6
g354
sI7
g364
ssI2
(dp426
I8
g377
sI5
g343
sI6
g358
sI7
g368
ssI3
(dp427
I5
g349
sI6
g362
ssI5
(dp428
I9
g386
sI10
g401
sI11
g415
ssI6
(dp429
I9
g390
sI10
g405
sI11
g416
ssI7
(dp430
I10
g409
sI11
g420
ssI8
(dp431
I9
g382
sI10
g395
sI11
g411
ssI9
(dp432
sI10
(dp433
sI11
(dp434
ssg309
g424
sg310
g10
sbag3
(g4
g5
Ntp435
Rp436
(dp437
g9
g10
sg11
g10
sg12
g10
sg13
(dp438
I1
(dp439
g16
I01
sg17
g18
sg19
g29
sg30
g36
sg45
g48
ssI2
(dp440
g16
I01
sg17
g18
sg19
g60
sg30
g63
sg45
g69
ssI3
(dp441
g16
I01
sg17
g18
sg19
g76
sg30
g79
sg45
g85
ssI5
(dp442
g16
I01
sg17
g90
sg19
g20
(g24
S'\x967\xdd\xcb:\n\x1d@'
p443
tp444
Rp445
sg30
g96
sg45
g102
ssI6
(dp446
g16
I01
sg17
g90
sg19
g109
sg30
g112
sg45
g118
ssI7
(dp447
g16
I01
sg17
g90
sg19
g125
sg30
g128
sg45
g134
ssI8
(dp448
g16
I01
sg17
g90
sg19
g20
(g24
S'\xa1\xf3\xb54\x97\xbb\x04\xc0'
p449
tp450
Rp451
sg30
g144
sg45
g150
ssI9
(dp452
g16
I01
sg17
g90
sg19
g20
(g24
S'\x13N\xb1\xf2\xf1?\x11@'
p453
tp454
Rp455
sg30
g160
sg45
g166
ssI10
(dp456
g16
I01
sg17
g90
sg19
I15
sg30
g176
sg45
g182
ssI11
(dp457
g16
I01
sg17
g90
sg19
g189
sg30
g192
sg45
g198
sssg202
(dp458
sg204
g3
(g205
g5
Ntp459
Rp460
(dp461
g209
g438
sbsg210
(dp462
I1
(dp463
sI2
(dp464
sI3
(dp465
sI5
(dp466
I3
(dp467
g16
g224
sg225
g352
sssI6
(dp468
I1
(dp469
g344
I01
sg345
g20
(g24
S'\x08\xee\x10?q\xe9#@'
p470
tp471
Rp472
ssI2
(dp473
g16
g224
sg225
g20
(g24
S'\xd4\x1a\xc2\xc3\xa83 @'
p474
tp475
Rp476
ssI3
(dp477
g16
g224
sg225
I-15
sssI7
(dp478
I1
(dp479
g16
g224
sg225
g20
(g24
S'wKV%\xf4+*\xc0'
p480
tp481
Rp482
ssI2
(dp483
g16
g224
sg225
g20
(g24
S'\x1d\xe4\xef\xf7\xe3\xda\x18\xc0'
p484
tp485
Rp486
sssI8
(dp487
I1
(dp488
g16
g224
sg225
g376
ssI2
(dp489
g16
g224
sg225
g20
(g24
S"\xd9'\x1bf\xfd\x98%\xc0"
p490
tp491
Rp492
sssI9
(dp493
I8
(dp494
g16
g224
sg225
g20
(g24
S'\x16\xae6?\x93I\x12@'
p495
tp496
Rp497
ssI5
(dp498
g16
g224
sg225
g389
ssI6
(dp499
g16
g224
sg225
g20
(g24
S'E\x0c\xc6\xb0}\t#\xc0'
p500
tp501
Rp502
sssI10
(dp503
I5
(dp504
g16
g224
sg225
g20
(g24
S'N\x9f8\xa6\x8e\xf6\x11@'
p505
tp506
Rp507
ssI6
(dp508
g16
g224
sg225
g20
(g24
S'\x01i\xbcL\x03;#\xc0'
p509
tp510
Rp511
ssI7
(dp512
g16
g224
sg225
g20
(g24
S'f\xf4{/+\xfe+\xc0'
p513
tp514
Rp515
sssI11
(dp516
I8
(dp517
g16
g224
sg225
g20
(g24
S'\x8e\x13EU\xbbe#@'
p518
tp519
Rp520
ssI5
(dp521
g16
g224
sg225
I15
ssI6
(dp522
g16
g224
sg225
g20
(g24
S'Q\xa0\xcc\xab\xff\xf7!\xc0'
p523
tp524
Rp525
ssI7
(dp526
g16
g224
sg225
g20
(g24
S'BN\xfa\x185\xa6\x03@'
p527
tp528
Rp529
ssssg297
(dp530
I1
(dp531
I8
g488
sI6
g469
sI7
g479
ssI2
(dp532
I8
g489
sI6
g473
sI7
g483
ssI3
(dp533
I5
g467
sI6
g477
ssI5
(dp534
I9
g498
sI10
g504
sI11
g521
ssI6
(dp535
I9
g499
sI10
g508
sI11
g522
ssI7
(dp536
I10
g512
sI11
g526
ssI8
(dp537
I9
g494
sI11
g517
ssI9
(dp538
sI10
(dp539
sI11
(dp540
ssg309
g530
sg310
g10
sbag3
(g4
g5
Ntp541
Rp542
(dp543
g9
g10
sg11
g10
sg12
g10
sg13
(dp544
I1
(dp545
g16
I01
sg17
g18
sg19
g20
(g24
S'\x00\x00\x00\x00\x00\x00\x00\x00'
p546
tp547
Rp548
sg30
g36
sg45
g48
ssI2
(dp549
g16
I01
sg17
g18
sg19
g20
(g24
S'\x00\x00\x00\x00\x00\x00\x00\x00'
p550
tp551
Rp552
sg30
g63
sg45
g69
ssI3
(dp553
g16
I01
sg17
g18
sg19
g20
(g24
S'\x00\x00\x00\x00\x00\x00\x00\x00'
p554
tp555
Rp556
sg30
g79
sg45
g85
ssI5
(dp557
g16
I01
sg17
g90
sg19
g20
(g24
S'\x00\x00\x00\x00\x00\x00&\xc0'
p558
tp559
Rp560
sg30
g96
sg45
g102
ssI6
(dp561
g16
I01
sg17
g90
sg19
g20
(g24
S'\x00\x00\x00\x00\x00\x00\x1c@'
p562
tp563
Rp564
sg30
g112
sg45
g118
ssI7
(dp565
g16
I01
sg17
g90
sg19
g20
(g24
S'u\xaa\x85\xf7\xb1\xf6\xfe?'
p566
tp567
Rp568
sg30
g128
sg45
g134
ssI8
(dp569
g16
I01
sg17
g90
sg19
g20
(g24
S'\xe4\n\xd0\xe15m\xf5?'
p570
tp571
Rp572
sg30
g144
sg45
g150
ssI9
(dp573
g16
I01
sg17
g90
sg19
g20
(g24
S'\x8c\xe9k\xe0\xb0\xee\x19@'
p574
tp575
Rp576
sg30
g160
sg45
g166
ssI10
(dp577
g16
I01
sg17
g90
sg19
g20
(g24
S'\x00\x00\x00\x00\x00\x00"\xc0'
p578
tp579
Rp580
sg30
g176
sg45
g182
ssI11
(dp581
g16
I01
sg17
g90
sg19
g20
(g24
S'\xcb\xa4\xadz\x00\x82\x13\xc0'
p582
tp583
Rp584
sg30
g192
sg45
g198
sssg202
(dp585
sg204
g3
(g205
g5
Ntp586
Rp587
(dp588
g209
g544
sbsg210
(dp589
I1
(dp590
sI2
(dp591
sI3
(dp592
sI5
(dp593
I1
(dp594
g16
g224
sg225
g20
(g24
S'[\x9a\x8eR\x7f\xc1&\xc0'
p595
tp596
Rp597
ssI2
(dp598
g16
g224
sg225
g20
(g24
S'\x00\x00\x00\x00\x00\x00\x08\xc0'
p599
tp600
Rp601
ssI3
(dp602
g16
g224
sg225
g20
(g24
S'\xac\x15V \xd8\x98*@'
p603
tp604
Rp605
sssI6
(dp606
I1
(dp607
g16
g224
sg225
g20
(g24
S'\x00\x00\x00\x00\x00\x00\x1c\xc0'
p608
tp609
Rp610
ssI2
(dp611
g16
g224
sg225
g20
(g24
S'\x8a\xa4\x0f(\x9e8-@'
p612
tp613
Rp614
ssI3
(dp615
g16
g224
sg225
g20
(g24
S'\x00\x00\x00\x00\x00\x00.@'
p616
tp617
Rp618
sssI7
(dp619
I1
(dp620
g16
g224
sg225
g20
(g24
S'\x00\x00\x00\x00\x00\x00&\xc0'
p621
tp622
Rp623
ssI2
(dp624
g16
g224
sg225
g20
(g24
S';\xb6o\x83\xa2M\x10\xc0'
p625
tp626
Rp627
ssI3
(dp628
g16
g224
sg225
I15
sssI8
(dp629
I1
(dp630
g16
g224
sg225
g20
(g24
S'029;l\xc6\x17@'
p631
tp632
Rp633
ssI2
(dp634
S'active'
p635
I01
sS'weight'
p636
I15
ssI3
(dp637
g16
g224
sg225
g20
(g24
S'\xb6\xae\x92\x03P\xb8\x11@'
p638
tp639
Rp640
sssI9
(dp641
I8
(dp642
g16
g224
sg225
g20
(g24
S'\x00\x00\x00\x00\x00\x00\x08@'
p643
tp644
Rp645
ssI5
(dp646
g16
g224
sg225
g20
(g24
S'\x00\x00\x00\x00\x00\x00&@'
p647
tp648
Rp649
ssI6
(dp650
g16
g224
sg225
g20
(g24
S'\x00\x00\x00\x00\x00\x00"@'
p651
tp652
Rp653
ssI7
(dp654
g16
g224
sg225
g20
(g24
S"\xb8\x931H\xb4\x08'@"
p655
tp656
Rp657
sssI10
(dp658
I8
(dp659
g16
g224
sg225
g400
ssI5
(dp660
g16
g224
sg225
g20
(g24
S'\x00\x00\x00\x00\x00\x00*\xc0'
p661
tp662
Rp663
ssI6
(dp664
g16
g224
sg225
g20
(g24
S'\x00h:w\xe3*\xea\xbf'
p665
tp666
Rp667
ssI7
(dp668
g16
g224
sg225
g20
(g24
S'\x8e|\x06P\xdb\\#\xc0'
p669
tp670
Rp671
sssI11
(dp672
I5
(dp673
g16
g224
sg225
g20
(g24
S'R\x84g\xb3\x1fO\x17\xc0'
p674
tp675
Rp676
ssI6
(dp677
g16
g224
sg225
g20
(g24
S'8\xe6#\xa2\xb0P,@'
p678
tp679
Rp680
ssI7
(dp681
S'active'
p682
I01
sS'weight'
p683
g20
(g24
S'\xd0\x15p(\xc0\r\t@'
p684
tp685
Rp686
ssssg297
(dp687
I1
(dp688
I8
g630
sI5
g594
sI6
g607
sI7
g620
ssI2
(dp689
I8
g634
sI5
g598
sI6
g611
sI7
g624
ssI3
(dp690
I8
g637
sI5
g602
sI6
g615
sI7
g628
ssI5
(dp691
I9
g646
sI10
g660
sI11
g673
ssI6
(dp692
I9
g650
sI10
g664
sI11
g677
ssI7
(dp693
I9
g654
sI10
g668
sI11
g681
ssI8
(dp694
I9
g642
sI10
g659
ssI9
(dp695
sI10
(dp696
sI11
(dp697
ssg309
g687
sg310
g10
sbag3
(g4
g5
Ntp698
Rp699
(dp700
g9
g10
sg11
g10
sg12
g10
sg13
(dp701
I1
(dp702
g16
I01
sg17
g18
sg19
g20
(g24
S'\x00\x00\x00\x00\x00\x00\x00\x00'
p703
tp704
Rp705
sg30
g36
sg45
g48
ssI2
(dp706
g16
I01
sg17
g18
sg19
g20
(g24
S'\x00\x00\x00\x00\x00\x00\x00\x00'
p707
tp708
Rp709
sg30
g63
sg45
g69
ssI3
(dp710
g16
I01
sg17
g18
sg19
g20
(g24
S'\x00\x00\x00\x00\x00\x00\x00\x00'
p711
tp712
Rp713
sg30
g79
sg45
g85
ssI5
(dp714
g16
I01
sg17
g90
sg19
g20
(g24
S'\x00\x00\x00\x00\x00\x00*\xc0'
p715
tp716
Rp717
sg30
g96
sg45
g102
ssI6
(dp718
g16
I01
sg17
g90
sg19
I-15
sg30
g112
sg45
g118
ssI7
(dp719
g16
I01
sg17
g90
sg19
g20
(g24
S'\x00\x00\x00\x00\x00\x00.@'
p720
tp721
Rp722
sg30
g128
sg45
g134
ssI8
(dp723
g16
I01
sg17
g90
sg19
g20
(g24
S'\x00\x00\x00\x00\x00\x00\x08\xc0'
p724
tp725
Rp726
sg30
g144
sg45
g150
ssI9
(dp727
g16
I01
sg17
g90
sg19
g20
(g24
S'D5l\xc20\x9c\x03\xc0'
p728
tp729
Rp730
sg30
g160
sg45
g166
ssI10
(dp731
g16
I01
sg17
g90
sg19
g20
(g24
S'\x00\x00\x00\x00\x00\x00\x08@'
p732
tp733
Rp734
sg30
g176
sg45
g182
ssI11
(dp735
g16
I01
sg17
g90
sg19
g20
(g24
S'\x00\x00\x00\x00\x00\x00\x1c\xc0'
p736
tp737
Rp738
sg30
g192
sg45
g198
sssg202
(dp739
sg204
g3
(g205
g5
Ntp740
Rp741
(dp742
g209
g701
sbsg210
(dp743
I1
(dp744
sI2
(dp745
sI3
(dp746
sI5
(dp747
I1
(dp748
g16
g224
sg225
g20
(g24
S'\x00\x00\x00\x00\x00\x00\x14\xc0'
p749
tp750
Rp751
ssI2
(dp752
g16
g224
sg225
g20
(g24
S'\x10\xa8\x9c9\x90\xf3\x19@'
p753
tp754
Rp755
ssI3
(dp756
g16
g224
sg225
I15
sssI6
(dp757
I1
(dp758
g16
g224
sg225
g20
(g24
S'\x8e\x06\xbe1\xea7!\xc0'
p759
tp760
Rp761
ssI2
(dp762
g16
g224
sg225
g20
(g24
S'\x00\x00\x00\x00\x00\x00\x08\xc0'
p763
tp764
Rp765
ssI3
(dp766
g16
g224
sg225
g20
(g24
S'\xdb\xfa\xaf@(\xe2\x15@'
p767
tp768
Rp769
sssI7
(dp770
I1
(dp771
g16
g224
sg225
g20
(g24
S'a\xd29\x1a\x7f\xbd$\xc0'
p772
tp773
Rp774
ssI2
(dp775
g16
g224
sg225
I-15
ssI3
(dp776
g16
g224
sg225
g20
(g24
S'R\xce\xf8\xf1\x02\xab\x15\xc0'
p777
tp778
Rp779
sssI8
(dp780
I1
(dp781
g16
g224
sg225
g20
(g24
S'\x00\x00\x00\x00\x00\x00.\xc0'
p782
tp783
Rp784
ssI2
(dp785
g16
g224
sg225
g20
(g24
S'\x00\x00\x00\x00\x00\x00.\xc0'
p786
tp787
Rp788
ssI3
(dp789
g16
g224
sg225
g20
(g24
S"\x9b\xd9'0#\x9b!\xc0"
p790
tp791
Rp792
sssI9
(dp793
I8
(dp794
g16
g224
sg225
I15
ssI5
(dp795
g16
g224
sg225
g20
(g24
S'\x00\x00\x00\x00\x00\x00\x14@'
p796
tp797
Rp798
ssI6
(dp799
g16
g224
sg225
g20
(g24
S'\x00\x00\x00\x00\x00\x00\x1c\xc0'
p800
tp801
Rp802
ssI7
(dp803
g16
g224
sg225
g20
(g24
S'\xa9\xed\xe4\xfe\x15<"@'
p804
tp805
Rp806
sssI10
(dp807
I8
(dp808
g16
g224
sg225
g20
(g24
S'\xd2m\x02\xaf\xfaL"\xc0'
p809
tp810
Rp811
ssI5
(dp812
g16
g224
sg225
g20
(g24
S'z\xf9\xb4,v;#@'
p813
tp814
Rp815
ssI6
(dp816
g16
g224
sg225
g20
(g24
S'\x00\x00\x00\x00\x00\x00*@'
p817
tp818
Rp819
ssI7
(dp820
g16
g224
sg225
g20
(g24
S'\x00\x00\x00\x00\x00\x00*@'
p821
tp822
Rp823
sssI11
(dp824
I5
(dp825
g16
g224
sg225
g20
(g24
S'j\xe1\x8b\x9a\xdb+&@'
p826
tp827
Rp828
ssI6
(dp829
g16
g224
sg225
g20
(g24
S'ct\xbf\xa5\x94`(@'
p830
tp831
Rp832
ssI7
(dp833
g16
g224
sg225
I15
ssssg297
(dp834
I1
(dp835
I8
g781
sI5
g748
sI6
g758
sI7
g771
ssI2
(dp836
I8
g785
sI5
g752
sI6
g762
sI7
g775
ssI3
(dp837
I8
g789
sI5
g756
sI6
g766
sI7
g776
ssI5
(dp838
I9
g795
sI10
g812
sI11
g825
ssI6
(dp839
I9
g799
sI10
g816
sI11
g829
ssI7
(dp840
I9
g803
sI10
g820
sI11
g833
ssI8
(dp841
I9
g794
sI10
g808
ssI9
(dp842
sI10
(dp843
sI11
(dp844
ssg309
g834
sg310
g10
sbag3
(g4
g5
Ntp845
Rp846
(dp847
g9
g10
sg11
g10
sg12
g10
sg13
(dp848
I1
(dp849
g16
I01
sg17
g18
sg19
g705
sg30
g36
sg45
g48
ssI2
(dp850
g16
I01
sg17
g18
sg19
g709
sg30
g63
sg45
g69
ssI3
(dp851
g16
I01
sg17
g18
sg19
g713
sg30
g79
sg45
g85
ssI5
(dp852
g16
I01
sg17
g90
sg19
g717
sg30
g96
sg45
g102
ssI6
(dp853
g16
I01
sg17
g90
sg19
I-15
sg30
g112
sg45
g118
ssI7
(dp854
g16
I01
sg17
g90
sg19
g722
sg30
g128
sg45
g134
ssI8
(dp855
g16
I01
sg17
g90
sg19
g20
(g24
S'd\xe7\xc3\xbf<\xff\x10\xc0'
p856
tp857
Rp858
sg30
g144
sg45
g150
ssI9
(dp859
g16
I01
sg17
g90
sg19
g20
(g24
S'\xf9O\x86\r9\xc0\x0c\xc0'
p860
tp861
Rp862
sg30
g160
sg45
g166
ssI10
(dp863
g16
I01
sg17
g90
sg19
g734
sg30
g176
sg45
g182
ssI11
(dp864
g16
I01
sg17
g90
sg19
g738
sg30
g192
sg45
g198
sssg202
(dp865
sg204
g3
(g205
g5
Ntp866
Rp867
(dp868
g209
g848
sbsg210
(dp869
I1
(dp870
sI2
(dp871
sI3
(dp872
sI5
(dp873
I1
(dp874
g16
g224
sg225
g20
(g24
S'{\x95\x17\xd8\xe35\x19\xc0'
p875
tp876
Rp877
ssI2
(dp878
g16
g224
sg225
g20
(g24
S'?\x98\xca(\xaa\x91#@'
p879
tp880
Rp881
ssI3
(dp882
g16
g224
sg225
I15
sssI6
(dp883
I1
(dp884
g16
g224
sg225
I-15
ssI2
(dp885
g16
g224
sg225
g20
(g24
S' \xa4\xb8\x08\x16\xde\x08\xc0'
p886
tp887
Rp888
ssI3
(dp889
g16
g224
sg225
g769
sssI7
(dp890
I1
(dp891
g16
g224
sg225
g20
(g24
S'\xae\xeb\r~\xa4b \xc0'
p892
tp893
Rp894
ssI2
(dp895
g16
g224
sg225
g20
(g24
S'\x9a0L\xab\r5-\xc0'
p896
tp897
Rp898
ssI3
(dp899
g16
g224
sg225
g779
sssI8
(dp900
I1
(dp901
g16
g224
sg225
g20
(g24
S'`\t\x80\xdcb\x07)\xc0'
p902
tp903
Rp904
ssI2
(dp905
g16
g224
sg225
g788
ssI3
(dp906
g16
g224
sg225
g20
(g24
S'\x1e~r\x94Z)!\xc0'
p907
tp908
Rp909
sssI9
(dp910
I8
(dp911
g16
g224
sg225
g20
(g24
S'\x12\xea*\xa9\x95%-@'
p912
tp913
Rp914
ssI5
(dp915
g16
g224
sg225
g798
ssI6
(dp916
g16
g224
sg225
g802
ssI7
(dp917
g16
g224
sg225
g20
(g24
S'[\x89\xcb\x1ed\x85!@'
p918
tp919
Rp920
sssI10
(dp921
I8
(dp922
g16
g224
sg225
g20
(g24
S'\xf5~@\xa0\xfe\x1a+\xc0'
p923
tp924
Rp925
ssI5
(dp926
g16
g224
sg225
g20
(g24
S'\x00\x00\x00\x00\x00\x00\x1c@'
p927
tp928
Rp929
ssI6
(dp930
g16
g224
sg225
g819
ssI7
(dp931
g16
g224
sg225
g20
(g24
S'r\xf4\x1004\x1a(@'
p932
tp933
Rp934
sssI11
(dp935
I5
(dp936
g16
g224
sg225
g828
ssI6
(dp937
g16
g224
sg225
g832
ssI7
(dp938
g16
g224
sg225
I15
ssssg297
(dp939
I1
(dp940
I8
g901
sI5
g874
sI6
g884
sI7
g891
ssI2
(dp941
I8
g905
sI5
g878
sI6
g885
sI7
g895
ssI3
(dp942
I8
g906
sI5
g882
sI6
g889
sI7
g899
ssI5
(dp943
I9
g915
sI10
g926
sI11
g936
ssI6
(dp944
I9
g916
sI10
g930
sI11
g937
ssI7
(dp945
I9
g917
sI10
g931
sI11
g938
ssI8
(dp946
I9
g911
sI10
g922
ssI9
(dp947
sI10
(dp948
sI11
(dp949
ssg309
g939
sg310
g10
sbaNaNaNaNaa(lp950
g3
(g4
g5
Ntp951
Rp952
(dp953
g9
g10
sg11
g10
sg12
g10
sg13
(dp954
I1
(dp955
g16
I01
sg17
g18
sg19
g29
sg30
g36
sg45
g48
ssI2
(dp956
g16
I01
sg17
g18
sg19
g60
sg30
g63
sg45
g69
ssI3
(dp957
g16
I01
sg17
g18
sg19
g76
sg30
g79
sg45
g85
ssI5
(dp958
g16
I01
sg17
g90
sg19
g20
(g24
S'u\x84\xe8\xbcE\xb9\x14@'
p959
tp960
Rp961
sg30
g96
sg45
g102
ssI6
(dp962
g16
I01
sg17
g90
sg19
g109
sg30
g112
sg45
g118
ssI7
(dp963
g16
I01
sg17
g90
sg19
g125
sg30
g128
sg45
g134
ssI8
(dp964
g16
I01
sg17
g90
sg19
g327
sg30
g144
sg45
g150
ssI9
(dp965
g16
I01
sg17
g90
sg19
g331
sg30
g160
sg45
g166
ssI10
(dp966
g16
I01
sg17
g90
sg19
g20
(g24
S'\xe2L\x10\xda\x998*@'
p967
tp968
Rp969
sg30
g176
sg45
g182
ssI11
(dp970
g16
I01
sg17
g90
sg19
g189
sg30
g192
sg45
g198
sssg202
(dp971
sg204
g3
(g205
g5
Ntp972
Rp973
(dp974
g209
g954
sbsg210
(dp975
I1
(dp976
sI2
(dp977
sI3
(dp978
sI5
(dp979
I3
(dp980
g16
g224
sg225
g20
(g24
S'\xd8\xd4R\x08\xa8\xf7\x15\xc0'
p981
tp982
Rp983
sssI6
(dp984
I2
(dp985
g16
g224
sg225
g20
(g24
S'xV\x0b\x1e\x1b\xb6#@'
p986
tp987
Rp988
ssI3
(dp989
g16
g224
sg225
g20
(g24
S'gE_\xd1\xf5\x7f-\xc0'
p990
tp991
Rp992
sssI7
(dp993
I1
(dp994
g16
g224
sg225
I-15
ssI2
(dp995
g16
g224
sg225
g486
sssI8
(dp996
I1
(dp997
g16
g224
sg225
g20
(g24
S'*A\xb9\xca\xbd\x8b\xe0?'
p998
tp999
Rp1000
ssI2
(dp1001
g16
g224
sg225
g20
(g24
S'.\x88\x17W\xb1\xf4*\xc0'
p1002
tp1003
Rp1004
sssI9
(dp1005
I8
(dp1006
g16
g224
sg225
g261
ssI5
(dp1007
g16
g224
sg225
g389
ssI6
(dp1008
g16
g224
sg225
g20
(g24
S'\xfa@\x1c3\x0c\x83 \xc0'
p1009
tp1010
Rp1011
sssI10
(dp1012
I5
(dp1013
g16
g224
sg225
g404
ssI6
(dp1014
g16
g224
sg225
g278
ssI7
(dp1015
g16
g224
sg225
I-15
sssI11
(dp1016
I8
(dp1017
g16
g224
sg225
g287
ssI5
(dp1018
g16
g224
sg225
I15
ssI6
(dp1019
g16
g224
sg225
g419
ssI7
(dp1020
g16
g224
sg225
g296
ssssg297
(dp1021
I1
(dp1022
I8
g997
sI7
g994
ssI2
(dp1023
I8
g1001
sI6
g985
sI7
g995
ssI3
(dp1024
I5
g980
sI6
g989
ssI5
(dp1025
I9
g1007
sI10
g1013
sI11
g1018
ssI6
(dp1026
I9
g1008
sI10
g1014
sI11
g1019
ssI7
(dp1027
I10
g1015
sI11
g1020
ssI8
(dp1028
I9
g1006
sI11
g1017
ssI9
(dp1029
sI10
(dp1030
sI11
(dp1031
ssg309
g1021
sg310
g10
sbag3
(g4
g5
Ntp1032
Rp1033
(dp1034
g9
g10
sg11
g10
sg12
g10
sg13
(dp1035
I1
(dp1036
g16
I01
sg17
g18
sg19
g29
sg30
g36
sg45
g48
ssI2
(dp1037
g16
I01
sg17
g18
sg19
g60
sg30
g63
sg45
g69
ssI3
(dp1038
g16
I01
sg17
g18
sg19
g76
sg30
g79
sg45
g85
ssI5
(dp1039
g16
I01
sg17
g90
sg19
g20
(g24
S'r\xd2<\xc8\xb0\x8a\x03@'
p1040
tp1041
Rp1042
sg30
g96
sg45
g102
ssI6
(dp1043
g16
I01
sg17
g90
sg19
g20
(g24
S'\xac\xb5\xe4D\xe0\r-@'
p1044
tp1045
Rp1046
sg30
g112
sg45
g118
ssI7
(dp1047
g16
I01
sg17
g90
sg19
g20
(g24
S'\xaeQU\x1e\xdaM\x00@'
p1048
tp1049
Rp1050
sg30
g128
sg45
g134
ssI8
(dp1051
g16
I01
sg17
g90
sg19
g327
sg30
g144
sg45
g150
ssI9
(dp1052
g16
I01
sg17
g90
sg19
g20
(g24
S'\x1a(U\xaf=S\x04@'
p1053
tp1054
Rp1055
sg30
g160
sg45
g166
ssI10
(dp1056
g16
I01
sg17
g90
sg19
I15
sg30
g176
sg45
g182
ssI11
(dp1057
g16
I01
sg17
g90
sg19
g189
sg30
g192
sg45
g198
sssg202
(dp1058
sg204
g3
(g205
g5
Ntp1059
Rp1060
(dp1061
g209
g1035
sbsg210
(dp1062
I1
(dp1063
sI2
(dp1064
sI3
(dp1065
sI5
(dp1066
I3
(dp1067
g16
g224
sg225
g20
(g24
S'p\x83\xad\x91|\xb1\x10\xc0'
p1068
tp1069
Rp1070
sssI6
(dp1071
I2
(dp1072
g16
g224
sg225
g988
ssI3
(dp1073
g16
g224
sg225
g992
sssI7
(dp1074
I1
(dp1075
g16
g224
sg225
I-15
ssI2
(dp1076
g16
g224
sg225
g486
sssI8
(dp1077
I1
(dp1078
g16
g224
sg225
g20
(g24
S'\xb4\x02p\x7f\x0e\x99\xd5?'
p1079
tp1080
Rp1081
ssI2
(dp1082
g16
g224
sg225
g20
(g24
S't\xcb\xf1\xcb\xc9\xbf%\xc0'
p1083
tp1084
Rp1085
sssI9
(dp1086
I8
(dp1087
g16
g224
sg225
g261
ssI5
(dp1088
g16
g224
sg225
g389
ssI6
(dp1089
g16
g224
sg225
g1011
sssI10
(dp1090
I5
(dp1091
g16
g224
sg225
g404
ssI6
(dp1092
g16
g224
sg225
g20
(g24
S'z\xaf)\xf1\x10*\x17\xc0'
p1093
tp1094
Rp1095
ssI7
(dp1096
g16
g224
sg225
I-15
sssI11
(dp1097
I8
(dp1098
g16
g224
sg225
g287
ssI5
(dp1099
g16
g224
sg225
I15
ssI6
(dp1100
g16
g224
sg225
g20
(g24
S'\xe8:*\x88\x8cQ&\xc0'
p1101
tp1102
Rp1103
ssI7
(dp1104
g16
g224
sg225
g20
(g24
S'[\x9f\xdd\x0bUH\x0c@'
p1105
tp1106
Rp1107
ssssg297
(dp1108
I1
(dp1109
I8
g1078
sI7
g1075
ssI2
(dp1110
I8
g1082
sI6
g1072
sI7
g1076
ssI3
(dp1111
I5
g1067
sI6
g1073
ssI5
(dp1112
I9
g1088
sI10
g1091
sI11
g1099
ssI6
(dp1113
I9
g1089
sI10
g1092
sI11
g1100
ssI7
(dp1114
I10
g1096
sI11
g1104
ssI8
(dp1115
I9
g1087
sI11
g1098
ssI9
(dp1116
sI10
(dp1117
sI11
(dp1118
ssg309
g1108
sg310
g10
sbag3
(g4
g5
Ntp1119
Rp1120
(dp1121
g9
g10
sg11
g10
sg12
g10
sg13
(dp1122
I1
(dp1123
g16
I01
sg17
g18
sg19
g20
(g24
S'\x00\x00\x00\x00\x00\x00\x00\x00'
p1124
tp1125
Rp1126
sg30
g36
sg45
g48
ssI2
(dp1127
g16
I01
sg17
g18
sg19
g20
(g24
S'\x00\x00\x00\x00\x00\x00\x00\x00'
p1128
tp1129
Rp1130
sg30
g63
sg45
g69
ssI3
(dp1131
g16
I01
sg17
g18
sg19
g20
(g24
S'\x00\x00\x00\x00\x00\x00\x00\x00'
p1132
tp1133
Rp1134
sg30
g79
sg45
g85
ssI5
(dp1135
g16
I01
sg17
g90
sg19
g20
(g24
S'\n\xcc9\xed\xa6\x99\x07@'
p1136
tp1137
Rp1138
sg30
g96
sg45
g102
ssI6
(dp1139
g16
I01
sg17
g90
sg19
g20
(g24
S'\xd4\x9c\x8f\x1e=\xb8*@'
p1140
tp1141
Rp1142
sg30
g112
sg45
g118
ssI7
(dp1143
g16
I01
sg17
g90
sg19
g20
(g24
S'\x00\x00\x00\x00\x00\x00\x08\xc0'
p1144
tp1145
Rp1146
sg30
g128
sg45
g134
ssI8
(dp1147
g16
I01
sg17
g90
sg19
g20
(g24
S'\x00\x00\x00\x00\x00\x00\xf0\xbf'
p1148
tp1149
Rp1150
sg30
g144
sg45
g150
ssI9
(dp1151
g16
I01
sg17
g90
sg19
g20
(g24
S'\x80!\xd3-\n\xc1\xb7\xbf'
p1152
tp1153
Rp1154
sg30
g160
sg45
g166
ssI10
(dp1155
g16
I01
sg17
g90
sg19
g20
(g24
S'\x00\x00\x00\x00\x00\x00.@'
p1156
tp1157
Rp1158
sg30
g176
sg45
g182
ssI11
(dp1159
g16
I01
sg17
g90
sg19
g20
(g24
S'\x00\x00\x00\x00\x00\x00\x1c@'
p1160
tp1161
Rp1162
sg30
g192
sg45
g198
sssg202
(dp1163
sg204
g3
(g205
g5
Ntp1164
Rp1165
(dp1166
g209
g1122
sbsg210
(dp1167
I1
(dp1168
sI2
(dp1169
sI3
(dp1170
sI5
(dp1171
I1
(dp1172
g16
g224
sg225
g20
(g24
S'\x00\x00\x00\x00\x00\x00*\xc0'
p1173
tp1174
Rp1175
ssI2
(dp1176
g16
g224
sg225
g20
(g24
S'\x00\x00\x00\x00\x00\x00\x1c\xc0'
p1177
tp1178
Rp1179
ssI3
(dp1180
g16
g224
sg225
g20
(g24
S'\x00\x00\x00\x00\x00\x00\x1c@'
p1181
tp1182
Rp1183
sssI6
(dp1184
I1
(dp1185
g16
g224
sg225
g20
(g24
S'p(l\x05\xf74\xe1?'
p1186
tp1187
Rp1188
ssI2
(dp1189
g16
g224
sg225
g20
(g24
S'\x00\x00\x00\x00\x00\x00&@'
p1190
tp1191
Rp1192
ssI3
(dp1193
g16
g224
sg225
g20
(g24
S'\xd7\\u\xfe1^\x1d\xc0'
p1194
tp1195
Rp1196
sssI7
(dp1197
I2
(dp1198
g16
g224
sg225
g20
(g24
S'\x00\x00\x00\x00\x00\x00&@'
p1199
tp1200
Rp1201
ssI3
(dp1202
g16
g224
sg225
I-15
sssI8
(dp1203
I1
(dp1204
g16
g224
sg225
g20
(g24
S'\x00\x00\x00\x00\x00\x00.@'
p1205
tp1206
Rp1207
ssI2
(dp1208
g16
g224
sg225
g20
(g24
S'Q\xf4i\xf9y\xce\x19\xc0'
p1209
tp1210
Rp1211
ssI3
(dp1212
g16
g224
sg225
g20
(g24
S'~\xc9$\x13\xca\xb5)@'
p1213
tp1214
Rp1215
sssI9
(dp1216
I5
(dp1217
g16
g224
sg225
g20
(g24
S'\x00\x00\x00\x00\x00\x00\x14@'
p1218
tp1219
Rp1220
ssI7
(dp1221
g16
g224
sg225
g20
(g24
S'K\xe5K&\xcb\xb0"\xc0'
p1222
tp1223
Rp1224
sssI10
(dp1225
I5
(dp1226
g16
g224
sg225
g20
(g24
S'\x00\x00\x00\x00\x00\x00*@'
p1227
tp1228
Rp1229
ssI7
(dp1230
g16
g224
sg225
g20
(g24
S'\xbb\x8d\xc0\x98\x10:\x11@'
p1231
tp1232
Rp1233
sssI11
(dp1234
I5
(dp1235
g16
g224
sg225
g20
(g24
S'\x00\x00\x00\x00\x00\x00*\xc0'
p1236
tp1237
Rp1238
ssI6
(dp1239
g16
g224
sg225
g20
(g24
S'\x00\x00\x00\x00\x00\x00\x14\xc0'
p1240
tp1241
Rp1242
ssI7
(dp1243
g16
g224
sg225
g20
(g24
S'\x00\x00\x00\x00\x00\x00\xf0\xbf'
p1244
tp1245
Rp1246
ssssg297
(dp1247
I1
(dp1248
I8
g1204
sI5
g1172
sI6
g1185
ssI2
(dp1249
I8
g1208
sI5
g1176
sI6
g1189
sI7
g1198
ssI3
(dp1250
I8
g1212
sI5
g1180
sI6
g1193
sI7
g1202
ssI5
(dp1251
I9
g1217
sI10
g1226
sI11
g1235
ssI6
(dp1252
I11
g1239
ssI7
(dp1253
I9
g1221
sI10
g1230
sI11
g1243
ssI8
(dp1254
sI9
(dp1255
sI10
(dp1256
sI11
(dp1257
ssg309
g1247
sg310
g10
sbaNaNaNaNaNaNaNaa(lp1258
NaNaNaNaNaNaNaNaNaNaa(lp1259
NaNaNaNaNaNaNaNaNaNaa(lp1260
NaNaNaNaNaNaNaNaNaNaa(lp1261
NaNaNaNaNaNaNaNaNaNaa(lp1262
NaNaNaNaNaNaNaNaNaNaa(lp1263
NaNaNaNaNaNaNaNaNaNaa(lp1264
NaNaNaNaNaNaNaNaNaNaa.