(lp0
(lp1
NaNaNaNaNaNaNaNaNaNaa(lp2
ccopy_reg
_reconstructor
p3
(cnetworkx.classes.digraph
DiGraph
p4
c__builtin__
object
p5
Ntp6
Rp7
(dp8
S'adjlist_inner_dict_factory'
p9
c__builtin__
dict
p10
sS'node_dict_factory'
p11
g10
sS'edge_attr_dict_factory'
p12
g10
sS'_node'
p13
(dp14
I1
(dp15
S'active'
p16
I01
sS'ActFunc'
p17
cNeuralNet.activations
noFunc
p18
sS'bias'
p19
cnumpy.core.multiarray
scalar
p20
(cnumpy
dtype
p21
(S'f8'
p22
I0
I1
tp23
Rp24
(I3
S'<'
p25
NNNI-1
I-1
I0
tp26
bS'\x00\x00\x00\x00\x00\x00\x00\x00'
p27
tp28
Rp29
sS'pos'
p30
cnumpy.core.multiarray
_reconstruct
p31
(cnumpy
ndarray
p32
(I0
tp33
S'b'
p34
tp35
Rp36
(I1
(I2
tp37
g21
(S'i8'
p38
I0
I1
tp39
Rp40
(I3
S'<'
p41
NNNI-1
I-1
I0
tp42
bI00
S'\x00\x00\x00\x00\x00\x00\x00\x00\x00\x00\x00\x00\x00\x00\x00\x00'
p43
tp44
bsS'pos1'
p45
g31
(g32
(I0
tp46
g34
tp47
Rp48
(I1
(I2
tp49
g21
(S'f8'
p50
I0
I1
tp51
Rp52
(I3
S'<'
p53
NNNI-1
I-1
I0
tp54
bI00
S'\x9a\x99\x99\x99\x99\x99\xb9?\x9a\x99\x99\x99\x99\x99\xb9?'
p55
tp56
bssI2
(dp57
g16
I01
sg17
g18
sg19
g20
(g24
S'\x00\x00\x00\x00\x00\x00\x00\x00'
p58
tp59
Rp60
sg30
g31
(g32
(I0
tp61
g34
tp62
Rp63
(I1
(I2
tp64
g40
I00
S'\x01\x00\x00\x00\x00\x00\x00\x00\x00\x00\x00\x00\x00\x00\x00\x00'
p65
tp66
bsg45
g31
(g32
(I0
tp67
g34
tp68
Rp69
(I1
(I2
tp70
g52
I00
S'\x9a\x99\x99\x99\x99\x99\xf1?\x9a\x99\x99\x99\x99\x99\xb9?'
p71
tp72
bssI3
(dp73
g16
I01
sg17
g18
sg19
g20
(g24
S'\x00\x00\x00\x00\x00\x00\x00\x00'
p74
tp75
Rp76
sg30
g31
(g32
(I0
tp77
g34
tp78
Rp79
(I1
(I2
tp80
g40
I00
S'\x02\x00\x00\x00\x00\x00\x00\x00\x00\x00\x00\x00\x00\x00\x00\x00'
p81
tp82
bsg45
g31
(g32
(I0
tp83
g34
tp84
Rp85
(I1
(I2
tp86
g52
I00
S'\xcd\xcc\xcc\xcc\xcc\xcc\x00@\x9a\x99\x99\x99\x99\x99\xb9?'
p87
tp88
bssI5
(dp89
g16
I01
sg17
cNeuralNet.activations
tanh
p90
sg19
g20
(g24
S'?5 \xea\xf4\x9e\x14@'
p91
tp92
Rp93
sg30
g31
(g32
(I0
tp94
g34
tp95
Rp96
(I1
(I2
tp97
g40
I00
S'\x00\x00\x00\x00\x00\x00\x00\x00\x01\x00\x00\x00\x00\x00\x00\x00'
p98
tp99
bsg45
g31
(g32
(I0
tp100
g34
tp101
Rp102
(I1
(I2
tp103
g52
I00
S'\x9a\x99\x99\x99\x99\x99\xb9?\x9a\x99\x99\x99\x99\x99\xf1?'
p104
tp105
bssI6
(dp106
g16
I01
sg17
g90
sg19
g20
(g24
S'\xec\xed\xab`\xf0\x1e$@'
p107
tp108
Rp109
sg30
g31
(g32
(I0
tp110
g34
tp111
Rp112
(I1
(I2
tp113
g40
I00
S'\x01\x00\x00\x00\x00\x00\x00\x00\x01\x00\x00\x00\x00\x00\x00\x00'
p114
tp115
bsg45
g31
(g32
(I0
tp116
g34
tp117
Rp118
(I1
(I2
tp119
g52
I00
S'\x9a\x99\x99\x99\x99\x99\xf1?\x9a\x99\x99\x99\x99\x99\xf1?'
p120
tp121
bssI7
(dp122
g16
I01
sg17
g90
sg19
g20
(g24
S'\x16\x9b|6/\xae\x11@'
p123
tp124
Rp125
sg30
g31
(g32
(I0
tp126
g34
tp127
Rp128
(I1
(I2
tp129
g40
I00
S'\x02\x00\x00\x00\x00\x00\x00\x00\x01\x00\x00\x00\x00\x00\x00\x00'
p130
tp131
bsg45
g31
(g32
(I0
tp132
g34
tp133
Rp134
(I1
(I2
tp135
g52
I00
S'\xcd\xcc\xcc\xcc\xcc\xcc\x00@\x9a\x99\x99\x99\x99\x99\xf1?'
p136
tp137
bssI8
(dp138
g16
I01
sg17
g90
sg19
g20
(g24
S'\x1ecwI\xbdy\x10\xc0'
p139
tp140
Rp141
sg30
g31
(g32
(I0
tp142
g34
tp143
Rp144
(I1
(I2
tp145
g40
I00
S'\x03\x00\x00\x00\x00\x00\x00\x00\x01\x00\x00\x00\x00\x00\x00\x00'
p146
tp147
bsg45
g31
(g32
(I0
tp148
g34
tp149
Rp150
(I1
(I2
tp151
g52
I00
S'\xcd\xcc\xcc\xcc\xcc\xcc\x08@\x9a\x99\x99\x99\x99\x99\xf1?'
p152
tp153
bssI9
(dp154
g16
I01
sg17
g90
sg19
g20
(g24
S'\xddP\xf7#\x0b\x04\x0f@'
p155
tp156
Rp157
sg30
g31
(g32
(I0
tp158
g34
tp159
Rp160
(I1
(I2
tp161
g40
I00
S'\x00\x00\x00\x00\x00\x00\x00\x00\x02\x00\x00\x00\x00\x00\x00\x00'
p162
tp163
bsg45
g31
(g32
(I0
tp164
g34
tp165
Rp166
(I1
(I2
tp167
g52
I00
S'\x9a\x99\x99\x99\x99\x99\xb9?\xcd\xcc\xcc\xcc\xcc\xcc\x00@'
p168
tp169
bssI10
(dp170
g16
I01
sg17
g90
sg19
g20
(g24
S'\x00\x00\x00\x00\x00\x00&@'
p171
tp172
Rp173
sg30
g31
(g32
(I0
tp174
g34
tp175
Rp176
(I1
(I2
tp177
g40
I00
S'\x01\x00\x00\x00\x00\x00\x00\x00\x02\x00\x00\x00\x00\x00\x00\x00'
p178
tp179
bsg45
g31
(g32
(I0
tp180
g34
tp181
Rp182
(I1
(I2
tp183
g52
I00
S'\x9a\x99\x99\x99\x99\x99\xf1?\xcd\xcc\xcc\xcc\xcc\xcc\x00@'
p184
tp185
bssI11
(dp186
g16
I01
sg17
g90
sg19
g20
(g24
S']\xbd$E\x1f/"\xc0'
p187
tp188
Rp189
sg30
g31
(g32
(I0
tp190
g34
tp191
Rp192
(I1
(I2
tp193
g40
I00
S'\x02\x00\x00\x00\x00\x00\x00\x00\x02\x00\x00\x00\x00\x00\x00\x00'
p194
tp195
bsg45
g31
(g32
(I0
tp196
g34
tp197
Rp198
(I1
(I2
tp199
g52
I00
S'\xcd\xcc\xcc\xcc\xcc\xcc\x00@\xcd\xcc\xcc\xcc\xcc\xcc\x00@'
p200
tp201
bsssS'graph'
p202
(dp203
sS'nodes'
p204
g3
(cnetworkx.classes.reportviews
NodeView
p205
g5
Ntp206
Rp207
(dp208
S'_nodes'
p209
g14
sbsS'_pred'
p210
(dp211
I1
(dp212
sI2
(dp213
sI3
(dp214
sI5
(dp215
I3
(dp216
g16
g20
(g21
(S'b1'
p217
I0
I1
tp218
Rp219
(I3
S'|'
p220
NNNI-1
I-1
I0
tp221
bS'\x01'
p222
tp223
Rp224
sS'weight'
p225
g20
(g24
S'\xd8\xd4R\x08\xa8\xf7\x15\xc0'
p226
tp227
Rp228
sssI6
(dp229
I2
(dp230
g16
g224
sg225
g20
(g24
S'Y?(x\xd0\x89+@'
p231
tp232
Rp233
ssI3
(dp234
g16
g224
sg225
g20
(g24
S'\xda}}\xfb^t&\xc0'
p235
tp236
Rp237
sssI7
(dp238
I1
(dp239
g16
g224
sg225
I-15
ssI2
(dp240
g16
g224
sg225
g20
(g24
S'hn\xce\x02\x83\x8b\x15\xc0'
p241
tp242
Rp243
sssI8
(dp244
I1
(dp245
g16
g224
sg225
g20
(g24
S'\xb2\xfanZ1\x90\xf6?'
p246
tp247
Rp248
ssI2
(dp249
g16
g224
sg225
g20
(g24
S'.\x88\x17W\xb1\xf4*\xc0'
p250
tp251
Rp252
ssI3
(dp253
g16
g224
sg225
g20
(g24
S'j"\xae\xe7\xaa\x98\x1c\xc0'
p254
tp255
Rp256
sssI9
(dp257
I8
(dp258
g16
g224
sg225
g20
(g24
S'\x1c#\xc1\x0b\t\x1d\x16@'
p259
tp260
Rp261
ssI5
(dp262
g16
g224
sg225
g20
(g24
S'\tTE=\xc8_\x0e@'
p263
tp264
Rp265
ssI6
(dp266
g16
g224
sg225
g20
(g24
S'h\x8cQ\x1c\x1e\xfd\x1f\xc0'
p267
tp268
Rp269
sssI10
(dp270
I5
(dp271
g16
g224
sg225
g20
(g24
S'\x1c{\x08\xfc\xf1\xa9\xc3?'
p272
tp273
Rp274
ssI6
(dp275
g16
g224
sg225
g20
(g24
S'&3W\x8c$l\x06\xc0'
p276
tp277
Rp278
ssI7
(dp279
g16
g224
sg225
g20
(g24
S'\x94e\xd6[_\xc3(\xc0'
p280
tp281
Rp282
sssI11
(dp283
I8
(dp284
g16
g224
sg225
g20
(g24
S'\xbe;p\xe3P/\x17@'
p285
tp286
Rp287
ssI5
(dp288
g16
g224
sg225
I15
ssI6
(dp289
g16
g224
sg225
g20
(g24
S'4\xf2\x15q\x19L+\xc0'
p290
tp291
Rp292
ssI7
(dp293
g16
g224
sg225
g20
(g24
S'\xe8\xe87\xf9`$\x02@'
p294
tp295
Rp296
ssssS'_succ'
p297
(dp298
I1
(dp299
I8
g245
sI7
g239
ssI2
(dp300
I8
g249
sI6
g230
sI7
g240
ssI3
(dp301
I8
g253
sI5
g216
sI6
g234
ssI5
(dp302
I9
g262
sI10
g271
sI11
g288
ssI6
(dp303
I9
g266
sI10
g275
sI11
g289
ssI7
(dp304
I10
g279
sI11
g293
ssI8
(dp305
I9
g258
sI11
g284
ssI9
(dp306
sI10
(dp307
sI11
(dp308
ssS'_adj'
p309
g298
sS'adjlist_outer_dict_factory'
p310
g10
sbag3
(g4
g5
Ntp311
Rp312
(dp313
g9
g10
sg11
g10
sg12
g10
sg13
(dp314
I1
(dp315
g16
I01
sg17
g18
sg19
g29
sg30
g36
sg45
g48
ssI2
(dp316
g16
I01
sg17
g18
sg19
g60
sg30
g63
sg45
g69
ssI3
(dp317
g16
I01
sg17
g18
sg19
g76
sg30
g79
sg45
g85
ssI5
(dp318
g16
I01
sg17
g90
sg19
g20
(g24
S'\x00\x00\x00\x00\x00\x00"@'
p319
tp320
Rp321
sg30
g96
sg45
g102
ssI6
(dp322
g16
I01
sg17
g90
sg19
g109
sg30
g112
sg45
g118
ssI7
(dp323
g16
I01
sg17
g90
sg19
g20
(g24
S'U=\xeb\xb9\xfa|\x17@'
p324
tp325
Rp326
sg30
g128
sg45
g134
ssI8
(dp327
g16
I01
sg17
g90
sg19
g141
sg30
g144
sg45
g150
ssI9
(dp328
g16
I01
sg17
g90
sg19
g157
sg30
g160
sg45
g166
ssI10
(dp329
g16
I01
sg17
g90
sg19
g173
sg30
g176
sg45
g182
ssI11
(dp330
g16
I01
sg17
g90
sg19
g189
sg30
g192
sg45
g198
sssg202
(dp331
sg204
g3
(g205
g5
Ntp332
Rp333
(dp334
g209
g314
sbsg210
(dp335
I1
(dp336
sI2
(dp337
sI3
(dp338
sI5
(dp339
I3
(dp340
g16
g224
sg225
g228
sssI6
(dp341
I2
(dp342
g16
g224
sg225
g20
(g24
S'\x00\x00\x00\x00\x00\x00&@'
p343
tp344
Rp345
ssI3
(dp346
g16
g224
sg225
g237
sssI7
(dp347
I1
(dp348
g16
g224
sg225
I-15
ssI2
(dp349
g16
g224
sg225
g243
sssI8
(dp350
I1
(dp351
g16
g224
sg225
g248
ssI2
(dp352
g16
g224
sg225
g252
ssI3
(dp353
g16
g224
sg225
g256
sssI9
(dp354
I8
(dp355
g16
g224
sg225
g20
(g24
S'\x82V\x9f\xdf\xca\x86\x13@'
p356
tp357
Rp358
ssI5
(dp359
g16
g224
sg225
g20
(g24
S'\xee5\xba$\xd0]\x00@'
p360
tp361
Rp362
ssI6
(dp363
g16
g224
sg225
g269
sssI10
(dp364
I8
(dp365
g16
g224
sg225
g20
(g24
S'\x00\x00\x00\x00\x00\x00\xf0\xbf'
p366
tp367
Rp368
ssI5
(dp369
g16
g224
sg225
g20
(g24
S'|\xfe_1^\x9c\x05@'
p370
tp371
Rp372
ssI6
(dp373
g16
g224
sg225
g278
ssI7
(dp374
g16
g224
sg225
g282
sssI11
(dp375
I8
(dp376
g16
g224
sg225
g287
ssI5
(dp377
g16
g224
sg225
I15
ssI6
(dp378
g16
g224
sg225
g292
ssI7
(dp379
g16
g224
sg225
g20
(g24
S'\x81\xbbU\xbd\x9fx\x07@'
p380
tp381
Rp382
ssssg297
(dp383
I1
(dp384
I8
g351
sI7
g348
ssI2
(dp385
I8
g352
sI6
g342
sI7
g349
ssI3
(dp386
I8
g353
sI5
g340
sI6
g346
ssI5
(dp387
I9
g359
sI10
g369
sI11
g377
ssI6
(dp388
I9
g363
sI10
g373
sI11
g378
ssI7
(dp389
I10
g374
sI11
g379
ssI8
(dp390
I9
g355
sI10
g365
sI11
g376
ssI9
(dp391
sI10
(dp392
sI11
(dp393
ssg309
g383
sg310
g10
sbag3
(g4
g5
Ntp394
Rp395
(dp396
g9
g10
sg11
g10
sg12
g10
sg13
(dp397
I1
(dp398
g16
I01
sg17
g18
sg19
g20
(g24
S'\x00\x00\x00\x00\x00\x00\x00\x00'
p399
tp400
Rp401
sg30
g36
sg45
g48
ssI2
(dp402
g16
I01
sg17
g18
sg19
g20
(g24
S'\x00\x00\x00\x00\x00\x00\x00\x00'
p403
tp404
Rp405
sg30
g63
sg45
g69
ssI3
(dp406
g16
I01
sg17
g18
sg19
g20
(g24
S'\x00\x00\x00\x00\x00\x00\x00\x00'
p407
tp408
Rp409
sg30
g79
sg45
g85
ssI5
(dp410
g16
I01
sg17
g90
sg19
g20
(g24
S'\x00\x00\x00\x00\x00\x00&\xc0'
p411
tp412
Rp413
sg30
g96
sg45
g102
ssI6
(dp414
g16
I01
sg17
g90
sg19
g20
(g24
S'\x00\x00\x00\x00\x00\x00\x1c@'
p415
tp416
Rp417
sg30
g112
sg45
g118
ssI7
(dp418
g16
I01
sg17
g90
sg19
g20
(g24
S'u\xaa\x85\xf7\xb1\xf6\xfe?'
p419
tp420
Rp421
sg30
g128
sg45
g134
ssI8
(dp422
g16
I01
sg17
g90
sg19
g20
(g24
S'\xe4\n\xd0\xe15m\xf5?'
p423
tp424
Rp425
sg30
g144
sg45
g150
ssI9
(dp426
g16
I01
sg17
g90
sg19
g20
(g24
S'\x00\x00\x00\x00\x00\x00\x14@'
p427
tp428
Rp429
sg30
g160
sg45
g166
ssI10
(dp430
g16
I01
sg17
g90
sg19
g20
(g24
S'\x00\x00\x00\x00\x00\x00"\xc0'
p431
tp432
Rp433
sg30
g176
sg45
g182
ssI11
(dp434
g16
I01
sg17
g90
sg19
g20
(g24
S'\xcb\xa4\xadz\x00\x82\x13\xc0'
p435
tp436
Rp437
sg30
g192
sg45
g198
sssg202
(dp438
sg204
g3
(g205
g5
Ntp439
Rp440
(dp441
g209
g397
sbsg210
(dp442
I1
(dp443
sI2
(dp444
sI3
(dp445
sI5
(dp446
I1
(dp447
g16
g224
sg225
g20
(g24
S'hR\x8f\xed_\xa8$\xc0'
p448
tp449
Rp450
ssI2
(dp451
g16
g224
sg225
g20
(g24
S'\x00\x00\x00\x00\x00\x00\x08\xc0'
p452
tp453
Rp454
ssI3
(dp455
g16
g224
sg225
g20
(g24
S'\x00\x00\x00\x00\x00\x00"@'
p456
tp457
Rp458
sssI6
(dp459
I1
(dp460
g16
g224
sg225
g20
(g24
S'\x00\x00\x00\x00\x00\x00\x1c\xc0'
p461
tp462
Rp463
ssI2
(dp464
g16
g224
sg225
g20
(g24
S'\x8a\xa4\x0f(\x9e8-@'
p465
tp466
Rp467
ssI3
(dp468
g16
g224
sg225
g20
(g24
S'\x00\x00\x00\x00\x00\x00.@'
p469
tp470
Rp471
sssI7
(dp472
I1
(dp473
g16
g224
sg225
g20
(g24
S'\x00\x00\x00\x00\x00\x00&\xc0'
p474
tp475
Rp476
ssI2
(dp477
g16
g224
sg225
g20
(g24
S';\xb6o\x83\xa2M\x10\xc0'
p478
tp479
Rp480
ssI3
(dp481
g16
g224
sg225
I15
sssI8
(dp482
I1
(dp483
g16
g224
sg225
g20
(g24
S'\xb4\t\x8e\xf1\xcf`\xd7\xbf'
p484
tp485
Rp486
ssI2
(dp487
S'active'
p488
I01
sS'weight'
p489
g20
(g24
S'\x00\x00\x00\x00\x00\x00\x1c@'
p490
tp491
Rp492
ssI3
(dp493
g16
g224
sg225
g20
(g24
S'\xb6\xae\x92\x03P\xb8\x11@'
p494
tp495
Rp496
sssI9
(dp497
I8
(dp498
g16
g224
sg225
g20
(g24
S'\x00\x00\x00\x00\x00\x00\x08@'
p499
tp500
Rp501
ssI5
(dp502
g16
g224
sg225
g20
(g24
S'\x00\x00\x00\x00\x00\x00&@'
p503
tp504
Rp505
ssI6
(dp506
g16
g224
sg225
g20
(g24
S'\x00\x00\x00\x00\x00\x00"@'
p507
tp508
Rp509
ssI7
(dp510
g16
g224
sg225
g20
(g24
S'9\xd0\n\xa1\xa7: @'
p511
tp512
Rp513
sssI10
(dp514
I8
(dp515
g16
g224
sg225
g20
(g24
S'\xac\xd9*V\xfe\xd6\xf2\xbf'
p516
tp517
Rp518
ssI5
(dp519
g16
g224
sg225
g20
(g24
S'\x00\x00\x00\x00\x00\x00*\xc0'
p520
tp521
Rp522
ssI6
(dp523
g16
g224
sg225
g20
(g24
S'\x00h:w\xe3*\xea\xbf'
p524
tp525
Rp526
ssI7
(dp527
g16
g224
sg225
g20
(g24
S'\x8e|\x06P\xdb\\#\xc0'
p528
tp529
Rp530
sssI11
(dp531
I8
(dp532
g16
g224
sg225
g20
(g24
S'\x00\x00\x00\x00\x00\x00\x14\xc0'
p533
tp534
Rp535
ssI5
(dp536
g16
g224
sg225
g20
(g24
S'R\x84g\xb3\x1fO\x17\xc0'
p537
tp538
Rp539
ssI6
(dp540
g16
g224
sg225
g20
(g24
S'\x00\x00\x00\x00\x00\x00*@'
p541
tp542
Rp543
ssI7
(dp544
S'active'
p545
I01
sS'weight'
p546
g20
(g24
S'\xd0\x15p(\xc0\r\t@'
p547
tp548
Rp549
ssssg297
(dp550
I1
(dp551
I8
g483
sI5
g447
sI6
g460
sI7
g473
ssI2
(dp552
I8
g487
sI5
g451
sI6
g464
sI7
g477
ssI3
(dp553
I8
g493
sI5
g455
sI6
g468
sI7
g481
ssI5
(dp554
I9
g502
sI10
g519
sI11
g536
ssI6
(dp555
I9
g506
sI10
g523
sI11
g540
ssI7
(dp556
I9
g510
sI10
g527
sI11
g544
ssI8
(dp557
I9
g498
sI10
g515
sI11
g532
ssI9
(dp558
sI10
(dp559
sI11
(dp560
ssg309
g550
sg310
g10
sbag3
(g4
g5
Ntp561
Rp562
(dp563
g9
g10
sg11
g10
sg12
g10
sg13
(dp564
I1
(dp565
g16
I01
sg17
g18
sg19
g401
sg30
g36
sg45
g48
ssI2
(dp566
g16
I01
sg17
g18
sg19
g405
sg30
g63
sg45
g69
ssI3
(dp567
g16
I01
sg17
g18
sg19
g409
sg30
g79
sg45
g85
ssI5
(dp568
g16
I01
sg17
g90
sg19
g413
sg30
g96
sg45
g102
ssI6
(dp569
g16
I01
sg17
g90
sg19
g417
sg30
g112
sg45
g118
ssI7
(dp570
g16
I01
sg17
g90
sg19
g421
sg30
g128
sg45
g134
ssI8
(dp571
g16
I01
sg17
g90
sg19
g20
(g24
S'\xe3\xa0i\x1b6n\x16@'
p572
tp573
Rp574
sg30
g144
sg45
g150
ssI9
(dp575
g16
I01
sg17
g90
sg19
g429
sg30
g160
sg45
g166
ssI10
(dp576
g16
I01
sg17
g90
sg19
g433
sg30
g176
sg45
g182
ssI11
(dp577
g16
I01
sg17
g90
sg19
g437
sg30
g192
sg45
g198
sssg202
(dp578
sg204
g3
(g205
g5
Ntp579
Rp580
(dp581
g209
g564
sbsg210
(dp582
I1
(dp583
sI2
(dp584
sI3
(dp585
sI5
(dp586
I1
(dp587
g16
g224
sg225
I-15
ssI2
(dp588
g16
g224
sg225
g20
(g24
S'\xb2\x86Q\xcd\xba\x0e\x0e\xc0'
p589
tp590
Rp591
ssI3
(dp592
g16
g224
sg225
g458
sssI6
(dp593
I1
(dp594
g16
g224
sg225
g20
(g24
S'\x04\xb2v\x85\x11\x04\x10\xc0'
p595
tp596
Rp597
ssI2
(dp598
g16
g224
sg225
g20
(g24
S'\x13X\x1d\x06\xb9\x94-@'
p599
tp600
Rp601
ssI3
(dp602
g16
g224
sg225
g471
sssI7
(dp603
I1
(dp604
g16
g224
sg225
g476
ssI2
(dp605
g16
g224
sg225
g20
(g24
S'\x00\x00\x00\x00\x00\x00"\xc0'
p606
tp607
Rp608
ssI3
(dp609
g16
g224
sg225
I15
sssI8
(dp610
I1
(dp611
g16
g224
sg225
g486
ssI2
(dp612
S'active'
p613
I01
sS'weight'
p614
g20
(g24
S'\x86<\xee\xc7\xc9\x0f,\xc0'
p615
tp616
Rp617
ssI3
(dp618
g16
g224
sg225
g496
sssI9
(dp619
I8
(dp620
g16
g224
sg225
g20
(g24
S"'Y\xffe\xb6\x16\x10@"
p621
tp622
Rp623
ssI5
(dp624
g16
g224
sg225
g505
ssI6
(dp625
g16
g224
sg225
g509
ssI7
(dp626
g16
g224
sg225
g20
(g24
S"\xec\xda'\x1a[)\x1d@"
p627
tp628
Rp629
sssI10
(dp630
I8
(dp631
g16
g224
sg225
g518
ssI5
(dp632
g16
g224
sg225
g522
ssI6
(dp633
g16
g224
sg225
g20
(g24
S'{\xf8T\x01j\xa9\n@'
p634
tp635
Rp636
ssI7
(dp637
g16
g224
sg225
g20
(g24
S'\xbcR\xac\xb5+\x05!\xc0'
p638
tp639
Rp640
sssI11
(dp641
I8
(dp642
g16
g224
sg225
g535
ssI5
(dp643
g16
g224
sg225
g539
ssI6
(dp644
g16
g224
sg225
g20
(g24
S'a=\xb8\x91\xc3\xfd)@'
p645
tp646
Rp647
ssI7
(dp648
g545
I01
sg546
g20
(g24
S'\xc8\x03\xa4\xa9n\x8f\r@'
p649
tp650
Rp651
ssssg297
(dp652
I1
(dp653
I8
g611
sI5
g587
sI6
g594
sI7
g604
ssI2
(dp654
I8
g612
sI5
g588
sI6
g598
sI7
g605
ssI3
(dp655
I8
g618
sI5
g592
sI6
g602
sI7
g609
ssI5
(dp656
I9
g624
sI10
g632
sI11
g643
ssI6
(dp657
I9
g625
sI10
g633
sI11
g644
ssI7
(dp658
I9
g626
sI10
g637
sI11
g648
ssI8
(dp659
I9
g620
sI10
g631
sI11
g642
ssI9
(dp660
sI10
(dp661
sI11
(dp662
ssg309
g652
sg310
g10
sbag3
(g4
g5
Ntp663
Rp664
(dp665
g9
g10
sg11
g10
sg12
g10
sg13
(dp666
I1
(dp667
g16
I01
sg17
g18
sg19
g20
(g24
S'\x00\x00\x00\x00\x00\x00\x00\x00'
p668
tp669
Rp670
sg30
g36
sg45
g48
ssI2
(dp671
g16
I01
sg17
g18
sg19
g20
(g24
S'\x00\x00\x00\x00\x00\x00\x00\x00'
p672
tp673
Rp674
sg30
g63
sg45
g69
ssI3
(dp675
g16
I01
sg17
g18
sg19
g20
(g24
S'\x00\x00\x00\x00\x00\x00\x00\x00'
p676
tp677
Rp678
sg30
g79
sg45
g85
ssI5
(dp679
g16
I01
sg17
g90
sg19
g20
(g24
S'\x00\x00\x00\x00\x00\x00*\xc0'
p680
tp681
Rp682
sg30
g96
sg45
g102
ssI6
(dp683
g16
I01
sg17
g90
sg19
I-15
sg30
g112
sg45
g118
ssI7
(dp684
g16
I01
sg17
g90
sg19
g20
(g24
S'\x00\x00\x00\x00\x00\x00.@'
p685
tp686
Rp687
sg30
g128
sg45
g134
ssI8
(dp688
g16
I01
sg17
g90
sg19
g20
(g24
S'\x00\x00\x00\x00\x00\x00\x08\xc0'
p689
tp690
Rp691
sg30
g144
sg45
g150
ssI9
(dp692
g16
I01
sg17
g90
sg19
g20
(g24
S'\x00\x00\x00\x00\x00\x00\x08\xc0'
p693
tp694
Rp695
sg30
g160
sg45
g166
ssI10
(dp696
g16
I01
sg17
g90
sg19
g20
(g24
S'\x00\x00\x00\x00\x00\x00\x08@'
p697
tp698
Rp699
sg30
g176
sg45
g182
ssI11
(dp700
g16
I01
sg17
g90
sg19
g20
(g24
S'\x00\x00\x00\x00\x00\x00\x1c\xc0'
p701
tp702
Rp703
sg30
g192
sg45
g198
sssg202
(dp704
sg204
g3
(g205
g5
Ntp705
Rp706
(dp707
g209
g666
sbsg210
(dp708
I1
(dp709
sI2
(dp710
sI3
(dp711
sI5
(dp712
I1
(dp713
g16
g224
sg225
g20
(g24
S'\x00\x00\x00\x00\x00\x00\x14\xc0'
p714
tp715
Rp716
ssI2
(dp717
g16
g224
sg225
g20
(g24
S'\x00\x00\x00\x00\x00\x00\x14@'
p718
tp719
Rp720
ssI3
(dp721
g16
g224
sg225
g20
(g24
S'\x00\x00\x00\x00\x00\x00.@'
p722
tp723
Rp724
sssI6
(dp725
I1
(dp726
g16
g224
sg225
g20
(g24
S'\x00\x00\x00\x00\x00\x00.\xc0'
p727
tp728
Rp729
ssI2
(dp730
g16
g224
sg225
g20
(g24
S'\x00\x00\x00\x00\x00\x00\x08\xc0'
p731
tp732
Rp733
ssI3
(dp734
g16
g224
sg225
g20
(g24
S'\x00\x00\x00\x00\x00\x00\x14@'
p735
tp736
Rp737
sssI7
(dp738
I1
(dp739
g16
g224
sg225
g20
(g24
S'\x00\x00\x00\x00\x00\x00"\xc0'
p740
tp741
Rp742
ssI2
(dp743
g16
g224
sg225
g20
(g24
S'\x9a0L\xab\r5-\xc0'
p744
tp745
Rp746
ssI3
(dp747
g16
g224
sg225
g20
(g24
S'#\xc7V\x02\xcd\xde\x13@'
p748
tp749
Rp750
sssI8
(dp751
I1
(dp752
g16
g224
sg225
g20
(g24
S'\x00\x00\x00\x00\x00\x00.\xc0'
p753
tp754
Rp755
ssI2
(dp756
g16
g224
sg225
g20
(g24
S'\x00\x00\x00\x00\x00\x00.\xc0'
p757
tp758
Rp759
ssI3
(dp760
g16
g224
sg225
g20
(g24
S"\x9b\xd9'0#\x9b!\xc0"
p761
tp762
Rp763
sssI9
(dp764
I8
(dp765
g16
g224
sg225
g20
(g24
S'\x00\x00\x00\x00\x00\x00&@'
p766
tp767
Rp768
ssI5
(dp769
g16
g224
sg225
g20
(g24
S'\x00\x00\x00\x00\x00\x00\x14@'
p770
tp771
Rp772
ssI6
(dp773
g16
g224
sg225
g20
(g24
S'\x00\x00\x00\x00\x00\x00\x1c\xc0'
p774
tp775
Rp776
ssI7
(dp777
g16
g224
sg225
g20
(g24
S'\x00\x00\x00\x00\x00\x00\x14@'
p778
tp779
Rp780
sssI10
(dp781
I8
(dp782
g16
g224
sg225
g20
(g24
S'\x00\x00\x00\x00\x00\x00\x1c\xc0'
p783
tp784
Rp785
ssI5
(dp786
g16
g224
sg225
g20
(g24
S'\x00\x00\x00\x00\x00\x00\x1c@'
p787
tp788
Rp789
ssI6
(dp790
g16
g224
sg225
g20
(g24
S'\x00\x00\x00\x00\x00\x00*@'
p791
tp792
Rp793
ssI7
(dp794
g16
g224
sg225
g20
(g24
S'\x00\x00\x00\x00\x00\x00*@'
p795
tp796
Rp797
sssI11
(dp798
I5
(dp799
g16
g224
sg225
g20
(g24
S'\x00\x00\x00\x00\x00\x00"@'
p800
tp801
Rp802
ssI6
(dp803
g16
g224
sg225
g20
(g24
S'Ca\xf0\x9b\x06Y!@'
p804
tp805
Rp806
ssI7
(dp807
g16
g224
sg225
g20
(g24
S'\x00\x00\x00\x00\x00\x00.@'
p808
tp809
Rp810
ssssg297
(dp811
I1
(dp812
I8
g752
sI5
g713
sI6
g726
sI7
g739
ssI2
(dp813
I8
g756
sI5
g717
sI6
g730
sI7
g743
ssI3
(dp814
I8
g760
sI5
g721
sI6
g734
sI7
g747
ssI5
(dp815
I9
g769
sI10
g786
sI11
g799
ssI6
(dp816
I9
g773
sI10
g790
sI11
g803
ssI7
(dp817
I9
g777
sI10
g794
sI11
g807
ssI8
(dp818
I9
g765
sI10
g782
ssI9
(dp819
sI10
(dp820
sI11
(dp821
ssg309
g811
sg310
g10
sbag3
(g4
g5
Ntp822
Rp823
(dp824
g9
g10
sg11
g10
sg12
g10
sg13
(dp825
I1
(dp826
g16
I01
sg17
g18
sg19
g20
(g24
S'\x00\x00\x00\x00\x00\x00\x00\x00'
p827
tp828
Rp829
sg30
g36
sg45
g48
ssI2
(dp830
g16
I01
sg17
g18
sg19
g20
(g24
S'\x00\x00\x00\x00\x00\x00\x00\x00'
p831
tp832
Rp833
sg30
g63
sg45
g69
ssI3
(dp834
g16
I01
sg17
g18
sg19
g20
(g24
S'\x00\x00\x00\x00\x00\x00\x00\x00'
p835
tp836
Rp837
sg30
g79
sg45
g85
ssI5
(dp838
g16
I01
sg17
g90
sg19
g20
(g24
S'\x00\x00\x00\x00\x00\x00"\xc0'
p839
tp840
Rp841
sg30
g96
sg45
g102
ssI6
(dp842
g16
I01
sg17
g90
sg19
g20
(g24
S'\x00\x00\x00\x00\x00\x00"\xc0'
p843
tp844
Rp845
sg30
g112
sg45
g118
ssI7
(dp846
g16
I01
sg17
g90
sg19
g20
(g24
S'\x00\x00\x00\x00\x00\x00\xf0\xbf'
p847
tp848
Rp849
sg30
g128
sg45
g134
ssI8
(dp850
g16
I01
sg17
g90
sg19
g20
(g24
S'\x00\x00\x00\x00\x00\x00.\xc0'
p851
tp852
Rp853
sg30
g144
sg45
g150
ssI9
(dp854
g16
I01
sg17
g90
sg19
g20
(g24
S'\x00\x00\x00\x00\x00\x00"\xc0'
p855
tp856
Rp857
sg30
g160
sg45
g166
ssI10
(dp858
g16
I01
sg17
g90
sg19
g20
(g24
S'\x00\x00\x00\x00\x00\x00\x08@'
p859
tp860
Rp861
sg30
g176
sg45
g182
ssI11
(dp862
g16
I01
sg17
g90
sg19
g20
(g24
S'\x00\x00\x00\x00\x00\x00&@'
p863
tp864
Rp865
sg30
g192
sg45
g198
sssg202
(dp866
sg204
g3
(g205
g5
Ntp867
Rp868
(dp869
g209
g825
sbsg210
(dp870
I1
(dp871
sI2
(dp872
sI3
(dp873
sI5
(dp874
I1
(dp875
g16
g224
sg225
g20
(g24
S'\x00\x00\x00\x00\x00\x00\x08\xc0'
p876
tp877
Rp878
ssI2
(dp879
g16
g224
sg225
g20
(g24
S'\x00\x00\x00\x00\x00\x00*@'
p880
tp881
Rp882
ssI3
(dp883
g16
g224
sg225
g20
(g24
S'\x00\x00\x00\x00\x00\x00.\xc0'
p884
tp885
Rp886
sssI6
(dp887
I1
(dp888
g16
g224
sg225
g20
(g24
S'\x00\x00\x00\x00\x00\x00"@'
p889
tp890
Rp891
ssI2
(dp892
g16
g224
sg225
g20
(g24
S'\x00\x00\x00\x00\x00\x00&\xc0'
p893
tp894
Rp895
ssI3
(dp896
g16
g224
sg225
g20
(g24
S'\x00\x00\x00\x00\x00\x00.@'
p897
tp898
Rp899
sssI7
(dp900
I1
(dp901
g16
g224
sg225
g20
(g24
S'\x00\x00\x00\x00\x00\x00.\xc0'
p902
tp903
Rp904
ssI2
(dp905
g16
g224
sg225
g20
(g24
S'\x00\x00\x00\x00\x00\x00*@'
p906
tp907
Rp908
ssI3
(dp909
g488
I01
sg489
g20
(g24
S'\x00\x00\x00\x00\x00\x00*\xc0'
p910
tp911
Rp912
sssI8
(dp913
I1
(dp914
g16
g224
sg225
g20
(g24
S' \xf1\xbfU\xd02 @'
p915
tp916
Rp917
ssI2
(dp918
g16
g224
sg225
g492
ssI3
(dp919
g16
g224
sg225
g20
(g24
S'u\xf5\xe7\x8f\xb96!\xc0'
p920
tp921
Rp922
sssI9
(dp923
I8
(dp924
g16
g224
sg225
g20
(g24
S'\x00\x00\x00\x00\x00\x00.@'
p925
tp926
Rp927
ssI5
(dp928
g16
g224
sg225
g20
(g24
S'\x00\x00\x00\x00\x00\x00"\xc0'
p929
tp930
Rp931
ssI6
(dp932
g16
g224
sg225
g20
(g24
S'\x00\x00\x00\x00\x00\x00"\xc0'
p933
tp934
Rp935
ssI7
(dp936
g16
g224
sg225
g20
(g24
S'\x00\x00\x00\x00\x00\x00.@'
p937
tp938
Rp939
sssI10
(dp940
I8
(dp941
g16
g224
sg225
g20
(g24
S'\x00\x00\x00\x00\x00\x00*@'
p942
tp943
Rp944
ssI5
(dp945
g16
g224
sg225
g20
(g24
S'\x00\x00\x00\x00\x00\x00&\xc0'
p946
tp947
Rp948
ssI7
(dp949
g16
g224
sg225
g20
(g24
S'\x00\x00\x00\x00\x00\x00.\xc0'
p950
tp951
Rp952
sssI11
(dp953
I8
(dp954
g16
g224
sg225
g20
(g24
S'\x00\x00\x00\x00\x00\x00&@'
p955
tp956
Rp957
ssI5
(dp958
g16
g224
sg225
g20
(g24
S'\x00\x00\x00\x00\x00\x00*\xc0'
p959
tp960
Rp961
ssI6
(dp962
g16
g224
sg225
g20
(g24
S'\x00\x00\x00\x00\x00\x00\x08@'
p963
tp964
Rp965
ssI7
(dp966
g16
g224
sg225
g20
(g24
S'\x00\x00\x00\x00\x00\x00"@'
p967
tp968
Rp969
ssssg297
(dp970
I1
(dp971
I8
g914
sI5
g875
sI6
g888
sI7
g901
ssI2
(dp972
I8
g918
sI5
g879
sI6
g892
sI7
g905
ssI3
(dp973
I8
g919
sI5
g883
sI6
g896
sI7
g909
ssI5
(dp974
I9
g928
sI10
g945
sI11
g958
ssI6
(dp975
I9
g932
sI11
g962
ssI7
(dp976
I9
g936
sI10
g949
sI11
g966
ssI8
(dp977
I9
g924
sI10
g941
sI11
g954
ssI9
(dp978
sI10
(dp979
sI11
(dp980
ssg309
g970
sg310
g10
sbaNaNaNaNaa(lp981
g3
(g4
g5
Ntp982
Rp983
(dp984
g9
g10
sg11
g10
sg12
g10
sg13
(dp985
I1
(dp986
g16
I01
sg17
g18
sg19
g29
sg30
g36
sg45
g48
ssI2
(dp987
g16
I01
sg17
g18
sg19
g60
sg30
g63
sg45
g69
ssI3
(dp988
g16
I01
sg17
g18
sg19
g76
sg30
g79
sg45
g85
ssI5
(dp989
g16
I01
sg17
g90
sg19
g20
(g24
S'C\xb4\x1c\x8c\x843#@'
p990
tp991
Rp992
sg30
g96
sg45
g102
ssI6
(dp993
g16
I01
sg17
g90
sg19
g20
(g24
S'\xda\xe4\xd5\xde\x83\xf1\x15@'
p994
tp995
Rp996
sg30
g112
sg45
g118
ssI7
(dp997
g16
I01
sg17
g90
sg19
g20
(g24
S'\xfc\x1cm\n$N @'
p998
tp999
Rp1000
sg30
g128
sg45
g134
ssI8
(dp1001
g16
I01
sg17
g90
sg19
g20
(g24
S'\xe0\x8e\xb8\xb4-\x8d\x03\xc0'
p1002
tp1003
Rp1004
sg30
g144
sg45
g150
ssI9
(dp1005
g16
I01
sg17
g90
sg19
g20
(g24
S'\x00\x00\x00\x00\x00\x00\x08@'
p1006
tp1007
Rp1008
sg30
g160
sg45
g166
ssI10
(dp1009
g16
I01
sg17
g90
sg19
g20
(g24
S'\x1a\xbc\xea\x8b\x96\xc2\x1a@'
p1010
tp1011
Rp1012
sg30
g176
sg45
g182
ssI11
(dp1013
g16
I01
sg17
g90
sg19
g20
(g24
S'C\xec\xab\x91@\x82(\xc0'
p1014
tp1015
Rp1016
sg30
g192
sg45
g198
sssg202
(dp1017
sg204
g3
(g205
g5
Ntp1018
Rp1019
(dp1020
g209
g985
sbsg210
(dp1021
I1
(dp1022
sI2
(dp1023
sI3
(dp1024
sI5
(dp1025
I2
(dp1026
g545
I01
sg546
g20
(g24
S'\xea[P#\\@)@'
p1027
tp1028
Rp1029
ssI3
(dp1030
g16
g224
sg225
g20
(g24
S'\xf4H\x00\x86\xe5\xf8\x0c@'
p1031
tp1032
Rp1033
sssI6
(dp1034
I2
(dp1035
g16
g224
sg225
g20
(g24
S"9\x89\xe2\xc05Z'@"
p1036
tp1037
Rp1038
ssI3
(dp1039
g16
g224
sg225
g20
(g24
S'>|S!\xd19\x02\xc0'
p1040
tp1041
Rp1042
sssI7
(dp1043
I1
(dp1044
g16
g224
sg225
g20
(g24
S'!K\xba4\xe7u*\xc0'
p1045
tp1046
Rp1047
sssI8
(dp1048
I1
(dp1049
g16
g224
sg225
g20
(g24
S'YE=I\x9f\xb8\x06@'
p1050
tp1051
Rp1052
ssI2
(dp1053
g16
g224
sg225
g20
(g24
S'\xa0\xd4\xb4\xc2\x90})\xc0'
p1054
tp1055
Rp1056
ssI3
(dp1057
g16
g224
sg225
g20
(g24
S'\x92\xb0\xa5\xdd0\x06\x1a\xc0'
p1058
tp1059
Rp1060
sssI9
(dp1061
I5
(dp1062
g16
g224
sg225
g20
(g24
S't\xd5\xc6\xd5%Z\x1d@'
p1063
tp1064
Rp1065
ssI6
(dp1066
g16
g224
sg225
g20
(g24
S'\x16\xcf\x17z\x1a\xc8&\xc0'
p1067
tp1068
Rp1069
sssI10
(dp1070
I8
(dp1071
g16
g224
sg225
g368
ssI5
(dp1072
g16
g224
sg225
g20
(g24
S'\xc5\x9b\xac|*\x83\xfd?'
p1073
tp1074
Rp1075
ssI6
(dp1076
g16
g224
sg225
g20
(g24
S'r9\xa1b\x82\x9b\xe9\xbf'
p1077
tp1078
Rp1079
ssI7
(dp1080
g16
g224
sg225
I-15
sssI11
(dp1081
I8
(dp1082
g16
g224
sg225
g20
(g24
S'\xa64P\xf7\x13\xc1\x12@'
p1083
tp1084
Rp1085
ssI5
(dp1086
g16
g224
sg225
g20
(g24
S'\x07x\xa9h\x16\xfd-@'
p1087
tp1088
Rp1089
ssI6
(dp1090
g16
g224
sg225
g20
(g24
S'\x80\x03\xdf,3\x86\x18\xc0'
p1091
tp1092
Rp1093
ssI7
(dp1094
g16
g224
sg225
g20
(g24
S'\xf2\xde{\xde\xe8w\x05@'
p1095
tp1096
Rp1097
ssssg297
(dp1098
I1
(dp1099
I8
g1049
sI7
g1044
ssI2
(dp1100
I8
g1053
sI5
g1026
sI6
g1035
ssI3
(dp1101
I8
g1057
sI5
g1030
sI6
g1039
ssI5
(dp1102
I9
g1062
sI10
g1072
sI11
g1086
ssI6
(dp1103
I9
g1066
sI10
g1076
sI11
g1090
ssI7
(dp1104
I10
g1080
sI11
g1094
ssI8
(dp1105
I10
g1071
sI11
g1082
ssI9
(dp1106
sI10
(dp1107
sI11
(dp1108
ssg309
g1098
sg310
g10
sbag3
(g4
g5
Ntp1109
Rp1110
(dp1111
g9
g10
sg11
g10
sg12
g10
sg13
(dp1112
I1
(dp1113
g16
I01
sg17
g18
sg19
g20
(g24
S'\x00\x00\x00\x00\x00\x00\x00\x00'
p1114
tp1115
Rp1116
sg30
g36
sg45
g48
ssI2
(dp1117
g16
I01
sg17
g18
sg19
g20
(g24
S'\x00\x00\x00\x00\x00\x00\x00\x00'
p1118
tp1119
Rp1120
sg30
g63
sg45
g69
ssI3
(dp1121
g16
I01
sg17
g18
sg19
g20
(g24
S'\x00\x00\x00\x00\x00\x00\x00\x00'
p1122
tp1123
Rp1124
sg30
g79
sg45
g85
ssI5
(dp1125
g16
I01
sg17
g90
sg19
g20
(g24
S'\x00\x00\x00\x00\x00\x00\xf0?'
p1126
tp1127
Rp1128
sg30
g96
sg45
g102
ssI6
(dp1129
g16
I01
sg17
g90
sg19
g20
(g24
S'\x00\x00\x00\x00\x00\x00&\xc0'
p1130
tp1131
Rp1132
sg30
g112
sg45
g118
ssI7
(dp1133
g16
I01
sg17
g90
sg19
g20
(g24
S'\x00\x00\x00\x00\x00\x00\xf0?'
p1134
tp1135
Rp1136
sg30
g128
sg45
g134
ssI8
(dp1137
g16
I01
sg17
g90
sg19
g20
(g24
S'\x00\x00\x00\x00\x00\x00\x14@'
p1138
tp1139
Rp1140
sg30
g144
sg45
g150
ssI9
(dp1141
g16
I01
sg17
g90
sg19
g20
(g24
S'\x00\x00\x00\x00\x00\x00*\xc0'
p1142
tp1143
Rp1144
sg30
g160
sg45
g166
ssI10
(dp1145
g16
I01
sg17
g90
sg19
g20
(g24
S'\x00\x00\x00\x00\x00\x00\x08@'
p1146
tp1147
Rp1148
sg30
g176
sg45
g182
ssI11
(dp1149
g16
I01
sg17
g90
sg19
g20
(g24
S'\x00\x00\x00\x00\x00\x00*@'
p1150
tp1151
Rp1152
sg30
g192
sg45
g198
sssg202
(dp1153
sg204
g3
(g205
g5
Ntp1154
Rp1155
(dp1156
g209
g1112
sbsg210
(dp1157
I1
(dp1158
sI2
(dp1159
sI3
(dp1160
sI5
(dp1161
I1
(dp1162
g16
g224
sg225
g20
(g24
S'\x00\x00\x00\x00\x00\x00\x14\xc0'
p1163
tp1164
Rp1165
ssI2
(dp1166
g16
g224
sg225
g20
(g24
S'\x00\x00\x00\x00\x00\x00\xf0?'
p1167
tp1168
Rp1169
ssI3
(dp1170
g16
g224
sg225
g20
(g24
S'\x00\x00\x00\x00\x00\x00\x08\xc0'
p1171
tp1172
Rp1173
sssI6
(dp1174
I1
(dp1175
g16
g224
sg225
g20
(g24
S'\xf4A\xc6\x80\x07G(\xc0'
p1176
tp1177
Rp1178
sssI7
(dp1179
I1
(dp1180
g16
g224
sg225
g20
(g24
S'\x00\x00\x00\x00\x00\x00\x1c\xc0'
p1181
tp1182
Rp1183
ssI2
(dp1184
g16
g224
sg225
g20
(g24
S'\x00\x00\x00\x00\x00\x00.@'
p1185
tp1186
Rp1187
ssI3
(dp1188
g16
g224
sg225
g912
sssI8
(dp1189
I2
(dp1190
g16
g224
sg225
g20
(g24
S'\x00\x00\x00\x00\x00\x00.@'
p1191
tp1192
Rp1193
ssI3
(dp1194
g16
g224
sg225
g20
(g24
S'\x00\x00\x00\x00\x00\x00&@'
p1195
tp1196
Rp1197
sssI9
(dp1198
I8
(dp1199
g16
g224
sg225
g20
(g24
S'\x00\x00\x00\x00\x00\x00\x1c\xc0'
p1200
tp1201
Rp1202
ssI5
(dp1203
g16
g224
sg225
g20
(g24
S'\x00\x00\x00\x00\x00\x00\x1c\xc0'
p1204
tp1205
Rp1206
ssI7
(dp1207
g16
g224
sg225
g20
(g24
S'\x00\x00\x00\x00\x00\x00.@'
p1208
tp1209
Rp1210
sssI10
(dp1211
I6
(dp1212
g16
g224
sg225
g20
(g24
S'\x00\x00\x00\x00\x00\x00"\xc0'
p1213
tp1214
Rp1215
ssI7
(dp1216
g16
g224
sg225
g20
(g24
S'\x00\x00\x00\x00\x00\x00\x14@'
p1217
tp1218
Rp1219
sssI11
(dp1220
I8
(dp1221
g16
g224
sg225
g20
(g24
S'\x00\x00\x00\x00\x00\x00.\xc0'
p1222
tp1223
Rp1224
ssI6
(dp1225
g16
g224
sg225
g20
(g24
S'\x00\x00\x00\x00\x00\x00.\xc0'
p1226
tp1227
Rp1228
ssI7
(dp1229
g16
g224
sg225
g20
(g24
S"\x91\x84\xbd\x98\xaad'@"
p1230
tp1231
Rp1232
ssssg297
(dp1233
I1
(dp1234
I5
g1162
sI6
g1175
sI7
g1180
ssI2
(dp1235
I8
g1190
sI5
g1166
sI7
g1184
ssI3
(dp1236
I8
g1194
sI5
g1170
sI7
g1188
ssI5
(dp1237
I9
g1203
ssI6
(dp1238
I10
g1212
sI11
g1225
ssI7
(dp1239
I9
g1207
sI10
g1216
sI11
g1229
ssI8
(dp1240
I9
g1199
sI11
g1221
ssI9
(dp1241
sI10
(dp1242
sI11
(dp1243
ssg309
g1233
sg310
g10
sbag3
(g4
g5
Ntp1244
Rp1245
(dp1246
g9
g10
sg11
g10
sg12
g10
sg13
(dp1247
I1
(dp1248
g16
I01
sg17
g18
sg19
g20
(g24
S'\x00\x00\x00\x00\x00\x00\x00\x00'
p1249
tp1250
Rp1251
sg30
g36
sg45
g48
ssI2
(dp1252
g16
I01
sg17
g18
sg19
g20
(g24
S'\x00\x00\x00\x00\x00\x00\x00\x00'
p1253
tp1254
Rp1255
sg30
g63
sg45
g69
ssI3
(dp1256
g16
I01
sg17
g18
sg19
g20
(g24
S'\x00\x00\x00\x00\x00\x00\x00\x00'
p1257
tp1258
Rp1259
sg30
g79
sg45
g85
ssI5
(dp1260
g16
I01
sg17
g90
sg19
g20
(g24
S'\x00\x00\x00\x00\x00\x00\xf0\xbf'
p1261
tp1262
Rp1263
sg30
g96
sg45
g102
ssI6
(dp1264
g16
I01
sg17
g90
sg19
g20
(g24
S'\x00\x00\x00\x00\x00\x00*@'
p1265
tp1266
Rp1267
sg30
g112
sg45
g118
ssI7
(dp1268
g16
I01
sg17
g90
sg19
g20
(g24
S'\x00\x00\x00\x00\x00\x00\x08\xc0'
p1269
tp1270
Rp1271
sg30
g128
sg45
g134
ssI8
(dp1272
g16
I01
sg17
g90
sg19
g20
(g24
S'\x00\x00\x00\x00\x00\x00\xf0\xbf'
p1273
tp1274
Rp1275
sg30
g144
sg45
g150
ssI9
(dp1276
g16
I01
sg17
g90
sg19
g20
(g24
S'\x00\x00\x00\x00\x00\x00\x08@'
p1277
tp1278
Rp1279
sg30
g160
sg45
g166
ssI10
(dp1280
g16
I01
sg17
g90
sg19
g20
(g24
S'\x00\x00\x00\x00\x00\x00.@'
p1281
tp1282
Rp1283
sg30
g176
sg45
g182
ssI11
(dp1284
g16
I01
sg17
g90
sg19
g20
(g24
S'\x00\x00\x00\x00\x00\x00\x1c@'
p1285
tp1286
Rp1287
sg30
g192
sg45
g198
sssg202
(dp1288
sg204
g3
(g205
g5
Ntp1289
Rp1290
(dp1291
g209
g1247
sbsg210
(dp1292
I1
(dp1293
sI2
(dp1294
sI3
(dp1295
sI5
(dp1296
I1
(dp1297
g16
g224
sg225
g20
(g24
S'\x00\x00\x00\x00\x00\x00*\xc0'
p1298
tp1299
Rp1300
ssI2
(dp1301
g16
g224
sg225
g20
(g24
S'\x00\x00\x00\x00\x00\x00\x1c\xc0'
p1302
tp1303
Rp1304
ssI3
(dp1305
g16
g224
sg225
g20
(g24
S'\x00\x00\x00\x00\x00\x00\x1c@'
p1306
tp1307
Rp1308
sssI6
(dp1309
I1
(dp1310
g16
g224
sg225
g20
(g24
S'\x00\x00\x00\x00\x00\x00\x08\xc0'
p1311
tp1312
Rp1313
ssI2
(dp1314
g16
g224
sg225
g20
(g24
S'\x00\x00\x00\x00\x00\x00&@'
p1315
tp1316
Rp1317
ssI3
(dp1318
g16
g224
sg225
g20
(g24
S'\x00\x00\x00\x00\x00\x00"\xc0'
p1319
tp1320
Rp1321
sssI7
(dp1322
I2
(dp1323
g16
g224
sg225
g20
(g24
S'\x00\x00\x00\x00\x00\x00&@'
p1324
tp1325
Rp1326
ssI3
(dp1327
g16
g224
sg225
g20
(g24
S'\x00\x00\x00\x00\x00\x00.\xc0'
p1328
tp1329
Rp1330
sssI8
(dp1331
I1
(dp1332
g16
g224
sg225
g20
(g24
S'\x00\x00\x00\x00\x00\x00.@'
p1333
tp1334
Rp1335
ssI2
(dp1336
g16
g224
sg225
g20
(g24
S'\x00\x00\x00\x00\x00\x00\x1c\xc0'
p1337
tp1338
Rp1339
ssI3
(dp1340
g16
g224
sg225
g20
(g24
S'\x00\x00\x00\x00\x00\x00*@'
p1341
tp1342
Rp1343
sssI9
(dp1344
I5
(dp1345
g16
g224
sg225
g20
(g24
S'\x00\x00\x00\x00\x00\x00\x14@'
p1346
tp1347
Rp1348
ssI7
(dp1349
g16
g224
sg225
g20
(g24
S'\x00\x00\x00\x00\x00\x00"\xc0'
p1350
tp1351
Rp1352
sssI10
(dp1353
I5
(dp1354
g16
g224
sg225
g20
(g24
S'\x00\x00\x00\x00\x00\x00*@'
p1355
tp1356
Rp1357
ssI7
(dp1358
g16
g224
sg225
g20
(g24
S'\x00\x00\x00\x00\x00\x00&@'
p1359
tp1360
Rp1361
sssI11
(dp1362
I5
(dp1363
g16
g224
sg225
g20
(g24
S'\x00\x00\x00\x00\x00\x00*\xc0'
p1364
tp1365
Rp1366
ssI6
(dp1367
g16
g224
sg225
g20
(g24
S'\x00\x00\x00\x00\x00\x00\x14\xc0'
p1368
tp1369
Rp1370
ssI7
(dp1371
g16
g224
sg225
g20
(g24
S'\x00\x00\x00\x00\x00\x00\xf0\xbf'
p1372
tp1373
Rp1374
ssssg297
(dp1375
I1
(dp1376
I8
g1332
sI5
g1297
sI6
g1310
ssI2
(dp1377
I8
g1336
sI5
g1301
sI6
g1314
sI7
g1323
ssI3
(dp1378
I8
g1340
sI5
g1305
sI6
g1318
sI7
g1327
ssI5
(dp1379
I9
g1345
sI10
g1354
sI11
g1363
ssI6
(dp1380
I11
g1367
ssI7
(dp1381
I9
g1349
sI10
g1358
sI11
g1371
ssI8
(dp1382
sI9
(dp1383
sI10
(dp1384
sI11
(dp1385
ssg309
g1375
sg310
g10
sbaNaNaNaNaNaNaNaa(lp1386
NaNaNaNaNaNaNaNaNaNaa(lp1387
NaNaNaNaNaNaNaNaNaNaa(lp1388
NaNaNaNaNaNaNaNaNaNaa(lp1389
NaNaNaNaNaNaNaNaNaNaa(lp1390
NaNaNaNaNaNaNaNaNaNaa(lp1391
NaNaNaNaNaNaNaNaNaNaa(lp1392
NaNaNaNaNaNaNaNaNaNaa.