(lp0
(lp1
NaNaNaNaNaNaNaNaNaNaa(lp2
ccopy_reg
_reconstructor
p3
(cnetworkx.classes.digraph
DiGraph
p4
c__builtin__
object
p5
Ntp6
Rp7
(dp8
S'adjlist_inner_dict_factory'
p9
c__builtin__
dict
p10
sS'node_dict_factory'
p11
g10
sS'edge_attr_dict_factory'
p12
g10
sS'_node'
p13
(dp14
I1
(dp15
S'active'
p16
I01
sS'ActFunc'
p17
cNeuralNet.activations
noFunc
p18
sS'bias'
p19
cnumpy.core.multiarray
scalar
p20
(cnumpy
dtype
p21
(S'f8'
p22
I0
I1
tp23
Rp24
(I3
S'<'
p25
NNNI-1
I-1
I0
tp26
bS'\x00\x00\x00\x00\x00\x00\x00\x00'
p27
tp28
Rp29
sS'pos'
p30
cnumpy.core.multiarray
_reconstruct
p31
(cnumpy
ndarray
p32
(I0
tp33
S'b'
p34
tp35
Rp36
(I1
(I2
tp37
g21
(S'i8'
p38
I0
I1
tp39
Rp40
(I3
S'<'
p41
NNNI-1
I-1
I0
tp42
bI00
S'\x00\x00\x00\x00\x00\x00\x00\x00\x00\x00\x00\x00\x00\x00\x00\x00'
p43
tp44
bssI2
(dp45
g16
I01
sg17
g18
sg19
g20
(g24
S'\x00\x00\x00\x00\x00\x00\x00\x00'
p46
tp47
Rp48
sg30
g31
(g32
(I0
tp49
g34
tp50
Rp51
(I1
(I2
tp52
g40
I00
S'\x01\x00\x00\x00\x00\x00\x00\x00\x00\x00\x00\x00\x00\x00\x00\x00'
p53
tp54
bssI3
(dp55
g16
I01
sg17
g18
sg19
g20
(g24
S'\x00\x00\x00\x00\x00\x00\x00\x00'
p56
tp57
Rp58
sg30
g31
(g32
(I0
tp59
g34
tp60
Rp61
(I1
(I2
tp62
g40
I00
S'\x02\x00\x00\x00\x00\x00\x00\x00\x00\x00\x00\x00\x00\x00\x00\x00'
p63
tp64
bssI5
(dp65
g16
I01
sg17
cNeuralNet.activations
tanh
p66
sg19
g20
(g24
S'\\fffff\xe6\xbf'
p67
tp68
Rp69
sg30
g31
(g32
(I0
tp70
g34
tp71
Rp72
(I1
(I2
tp73
g40
I00
S'\x00\x00\x00\x00\x00\x00\x00\x00\x01\x00\x00\x00\x00\x00\x00\x00'
p74
tp75
bssI6
(dp76
g16
I01
sg17
g66
sg19
g20
(g24
S'233333\xfb\xbf'
p77
tp78
Rp79
sg30
g31
(g32
(I0
tp80
g34
tp81
Rp82
(I1
(I2
tp83
g40
I00
S'\x01\x00\x00\x00\x00\x00\x00\x00\x01\x00\x00\x00\x00\x00\x00\x00'
p84
tp85
bssI7
(dp86
g16
I01
sg17
g66
sg19
g20
(g24
S'\xc4\xcc\xcc\xcc\xcc\xcc\xec\xbf'
p87
tp88
Rp89
sg30
g31
(g32
(I0
tp90
g34
tp91
Rp92
(I1
(I2
tp93
g40
I00
S'\x02\x00\x00\x00\x00\x00\x00\x00\x01\x00\x00\x00\x00\x00\x00\x00'
p94
tp95
bssI8
(dp96
g16
I01
sg17
g66
sg19
g20
(g24
S'\xa8\x99\x99\x99\x99\x99\xf9?'
p97
tp98
Rp99
sg30
g31
(g32
(I0
tp100
g34
tp101
Rp102
(I1
(I2
tp103
g40
I00
S'\x03\x00\x00\x00\x00\x00\x00\x00\x01\x00\x00\x00\x00\x00\x00\x00'
p104
tp105
bssI9
(dp106
g16
I01
sg17
g66
sg19
g20
(g24
S'\xfe\xff\xff\xff\xff\xff\xf7\xbf'
p107
tp108
Rp109
sg30
g31
(g32
(I0
tp110
g34
tp111
Rp112
(I1
(I2
tp113
g40
I00
S'\x00\x00\x00\x00\x00\x00\x00\x00\x02\x00\x00\x00\x00\x00\x00\x00'
p114
tp115
bssI10
(dp116
g16
I01
sg17
g66
sg19
g20
(g24
S'\xcc\xcc\xcc\xcc\xcc\xcc\xfc\xbf'
p117
tp118
Rp119
sg30
g31
(g32
(I0
tp120
g34
tp121
Rp122
(I1
(I2
tp123
g40
I00
S'\x01\x00\x00\x00\x00\x00\x00\x00\x02\x00\x00\x00\x00\x00\x00\x00'
p124
tp125
bssI11
(dp126
g16
I01
sg17
g66
sg19
g20
(g24
S'vfffff\xfe?'
p127
tp128
Rp129
sg30
g31
(g32
(I0
tp130
g34
tp131
Rp132
(I1
(I2
tp133
g40
I00
S'\x02\x00\x00\x00\x00\x00\x00\x00\x02\x00\x00\x00\x00\x00\x00\x00'
p134
tp135
bsssS'graph'
p136
(dp137
sS'nodes'
p138
g3
(cnetworkx.classes.reportviews
NodeView
p139
g5
Ntp140
Rp141
(dp142
S'_nodes'
p143
g14
sbsS'_pred'
p144
(dp145
I1
(dp146
sI2
(dp147
sI3
(dp148
sI5
(dp149
I1
(dp150
g16
g20
(g21
(S'b1'
p151
I0
I1
tp152
Rp153
(I3
S'|'
p154
NNNI-1
I-1
I0
tp155
bS'\x01'
p156
tp157
Rp158
sS'weight'
p159
g20
(g24
S'\x96\x99\x99\x99\x99\x99\xf1\xbf'
p160
tp161
Rp162
ssI2
(dp163
g16
g158
sg159
g20
(g24
S'\x0c\x00\x00\x00\x00\x00\xf0?'
p164
tp165
Rp166
ssI3
(dp167
g16
g158
sg159
g20
(g24
S'\x80\x99\x99\x99\x99\x99\xd9\xbf'
p168
tp169
Rp170
sssI6
(dp171
I1
(dp172
S'active'
p173
I01
sS'weight'
p174
g20
(g24
S'\x80\x99\x99\x99\x99\x99\xd9\xbf'
p175
tp176
Rp177
ssI2
(dp178
g16
g158
sg159
g20
(g24
S'\x96\x99\x99\x99\x99\x99\xf1\xbf'
p179
tp180
Rp181
ssI3
(dp182
g16
g158
sg159
g20
(g24
S'\x0e\x00\x00\x00\x00\x00\xf8?'
p183
tp184
Rp185
sssI7
(dp186
I3
(dp187
g16
g158
sg159
g20
(g24
S'H33333\xe3?'
p188
tp189
Rp190
sssI8
(dp191
I1
(dp192
S'active'
p193
I01
sS'weight'
p194
g20
(g24
S'ffffff\xfe\xbf'
p195
tp196
Rp197
ssI2
(dp198
g16
g158
sg159
g20
(g24
S'\xfe\xff\xff\xff\xff\xff\xf7\xbf'
p199
tp200
Rp201
sssI9
(dp202
I8
(dp203
g16
g158
sg159
g20
(g24
S'\xda\xcc\xcc\xcc\xcc\xcc\xf4?'
p204
tp205
Rp206
ssI5
(dp207
S'active'
p208
I01
sS'weight'
p209
g20
(g24
S'|fffff\xe6?'
p210
tp211
Rp212
ssI6
(dp213
g16
g158
sg159
g20
(g24
S'\xfe\xff\xff\xff\xff\xff\xf7\xbf'
p214
tp215
Rp216
sssI10
(dp217
I8
(dp218
g16
g158
sg159
g20
(g24
S'B33333\xfb?'
p219
tp220
Rp221
ssI6
(dp222
g16
g158
sg159
g20
(g24
S'\xe0\x99\x99\x99\x99\x99\xc9?'
p223
tp224
Rp225
sssI11
(dp226
I8
(dp227
g16
g158
sg159
g20
(g24
S'\x96\x99\x99\x99\x99\x99\xf1\xbf'
p228
tp229
Rp230
ssI5
(dp231
g16
g158
sg159
g20
(g24
S'\xc4\xcc\xcc\xcc\xcc\xcc\xec\xbf'
p232
tp233
Rp234
ssI6
(dp235
g16
g158
sg159
g20
(g24
S'\x0e\x00\x00\x00\x00\x00\xf8?'
p236
tp237
Rp238
ssssS'_succ'
p239
(dp240
I1
(dp241
I8
g192
sI5
g150
sI6
g172
ssI2
(dp242
I8
g198
sI5
g163
sI6
g178
ssI3
(dp243
I5
g167
sI6
g182
sI7
g187
ssI5
(dp244
I9
g207
sI11
g231
ssI6
(dp245
I9
g213
sI10
g222
sI11
g235
ssI7
(dp246
sI8
(dp247
I9
g203
sI10
g218
sI11
g227
ssI9
(dp248
sI10
(dp249
sI11
(dp250
ssS'_adj'
p251
g240
sS'adjlist_outer_dict_factory'
p252
g10
sbag3
(g4
g5
Ntp253
Rp254
(dp255
g9
g10
sg11
g10
sg12
g10
sg13
(dp256
I1
(dp257
g16
I01
sg17
g18
sg19
g29
sg30
g36
ssI2
(dp258
g16
I01
sg17
g18
sg19
g48
sg30
g51
ssI3
(dp259
g16
I01
sg17
g18
sg19
g58
sg30
g61
ssI5
(dp260
g16
I01
sg17
g66
sg19
g20
(g24
S'\xf8\xff\xff\xff\xff\xff\xef\xbf'
p261
tp262
Rp263
sg30
g72
ssI6
(dp264
g16
I01
sg17
g66
sg19
g20
(g24
S'\xcc\xcc\xcc\xcc\xcc\xcc\xfc\xbf'
p265
tp266
Rp267
sg30
g82
ssI7
(dp268
g16
I01
sg17
g66
sg19
g20
(g24
S'\xf8\xff\xff\xff\xff\xff\xef\xbf'
p269
tp270
Rp271
sg30
g92
ssI8
(dp272
g16
I01
sg17
g66
sg19
g20
(g24
S'B33333\xfb?'
p273
tp274
Rp275
sg30
g102
ssI9
(dp276
g16
I01
sg17
g66
sg19
g20
(g24
S'dfffff\xf6\xbf'
p277
tp278
Rp279
sg30
g112
ssI10
(dp280
g16
I01
sg17
g66
sg19
g119
sg30
g122
ssI11
(dp281
g16
I01
sg17
g66
sg19
g129
sg30
g132
sssg136
(dp282
sg138
g3
(g139
g5
Ntp283
Rp284
(dp285
g143
g256
sbsg144
(dp286
I1
(dp287
sI2
(dp288
sI3
(dp289
sI5
(dp290
I1
(dp291
g16
g158
sg159
g20
(g24
S'033333\xf3\xbf'
p292
tp293
Rp294
ssI2
(dp295
g16
g158
sg159
g20
(g24
S'\x0c\x00\x00\x00\x00\x00\xf0?'
p296
tp297
Rp298
ssI3
(dp299
g16
g158
sg159
g170
sssI6
(dp300
I1
(dp301
g173
I01
sg174
g20
(g24
S'\x1833333\xd3\xbf'
p302
tp303
Rp304
ssI2
(dp305
g16
g158
sg159
g20
(g24
S'\xc4\xcc\xcc\xcc\xcc\xcc\xec\xbf'
p306
tp307
Rp308
ssI3
(dp309
g16
g158
sg159
g20
(g24
S'\xa8\x99\x99\x99\x99\x99\xf9?'
p310
tp311
Rp312
sssI7
(dp313
I1
(dp314
g16
g158
sg159
g20
(g24
S'\x00\x00\x00\x00\x00\x00\xe0<'
p315
tp316
Rp317
ssI3
(dp318
g16
g158
sg159
g20
(g24
S'\x14\x00\x00\x00\x00\x00\xe0?'
p319
tp320
Rp321
sssI8
(dp322
I2
(dp323
g16
g158
sg159
g20
(g24
S'\x98\x99\x99\x99\x99\x99\xf9\xbf'
p324
tp325
Rp326
sssI9
(dp327
I8
(dp328
g16
g158
sg159
g20
(g24
S'@33333\xf3?'
p329
tp330
Rp331
ssI5
(dp332
g208
I01
sg209
g212
ssI6
(dp333
g16
g158
sg159
g216
sssI10
(dp334
I8
(dp335
g16
g158
sg159
g20
(g24
S'\xdc\xcc\xcc\xcc\xcc\xcc\xfc?'
p336
tp337
Rp338
ssI5
(dp339
g16
g158
sg159
g20
(g24
S'H33333\xe3?'
p340
tp341
Rp342
ssI6
(dp343
g16
g158
sg159
g20
(g24
S' \x9a\x99\x99\x99\x99\xb9?'
p344
tp345
Rp346
sssI11
(dp347
I8
(dp348
g16
g158
sg159
g20
(g24
S'033333\xf3\xbf'
p349
tp350
Rp351
ssI5
(dp352
g16
g158
sg159
g234
ssI6
(dp353
g16
g158
sg159
g20
(g24
S'\xa8\x99\x99\x99\x99\x99\xf9?'
p354
tp355
Rp356
ssssg239
(dp357
I1
(dp358
I5
g291
sI6
g301
sI7
g314
ssI2
(dp359
I8
g323
sI5
g295
sI6
g305
ssI3
(dp360
I5
g299
sI6
g309
sI7
g318
ssI5
(dp361
I9
g332
sI10
g339
sI11
g352
ssI6
(dp362
I9
g333
sI10
g343
sI11
g353
ssI7
(dp363
sI8
(dp364
I9
g328
sI10
g335
sI11
g348
ssI9
(dp365
sI10
(dp366
sI11
(dp367
ssg251
g357
sg252
g10
sbag3
(g4
g5
Ntp368
Rp369
(dp370
g9
g10
sg11
g10
sg12
g10
sg13
(dp371
I1
(dp372
g16
I01
sg17
g18
sg19
g29
sg30
g36
ssI2
(dp373
g16
I01
sg17
g18
sg19
g48
sg30
g51
ssI3
(dp374
g16
I01
sg17
g18
sg19
g58
sg30
g61
ssI5
(dp375
g16
I01
sg17
g66
sg19
g20
(g24
S'\xc4\xcc\xcc\xcc\xcc\xcc\xec\xbf'
p376
tp377
Rp378
sg30
g72
ssI6
(dp379
g16
I01
sg17
g66
sg19
g20
(g24
S'\xcc\xcc\xcc\xcc\xcc\xcc\xfc\xbf'
p380
tp381
Rp382
sg30
g82
ssI7
(dp383
g16
I01
sg17
g66
sg19
g20
(g24
S'\xc4\xcc\xcc\xcc\xcc\xcc\xec\xbf'
p384
tp385
Rp386
sg30
g92
ssI8
(dp387
g16
I01
sg17
g66
sg19
g20
(g24
S'\xdc\xcc\xcc\xcc\xcc\xcc\xfc?'
p388
tp389
Rp390
sg30
g102
ssI9
(dp391
g16
I01
sg17
g66
sg19
g109
sg30
g112
ssI10
(dp392
g16
I01
sg17
g66
sg19
g119
sg30
g122
ssI11
(dp393
g16
I01
sg17
g66
sg19
g129
sg30
g132
sssg136
(dp394
sg138
g3
(g139
g5
Ntp395
Rp396
(dp397
g143
g371
sbsg144
(dp398
I1
(dp399
sI2
(dp400
sI3
(dp401
sI5
(dp402
I1
(dp403
g16
g158
sg159
g162
ssI2
(dp404
g16
g158
sg159
g20
(g24
S'@33333\xf3?'
p405
tp406
Rp407
ssI3
(dp408
g16
g158
sg159
g20
(g24
S'\xe8\xff\xff\xff\xff\xff\xdf\xbf'
p409
tp410
Rp411
sssI6
(dp412
I1
(dp413
g173
I01
sg174
g304
ssI2
(dp414
g16
g158
sg159
g20
(g24
S'\xc4\xcc\xcc\xcc\xcc\xcc\xec\xbf'
p415
tp416
Rp417
ssI3
(dp418
g16
g158
sg159
g20
(g24
S'tfffff\xf6?'
p419
tp420
Rp421
sssI7
(dp422
I1
(dp423
g16
g158
sg159
g20
(g24
S' \x9a\x99\x99\x99\x99\xb9?'
p424
tp425
Rp426
ssI2
(dp427
g16
g158
sg159
g20
(g24
S'\x14\x00\x00\x00\x00\x00\xe0?'
p428
tp429
Rp430
ssI3
(dp431
g16
g158
sg159
g321
sssI8
(dp432
I2
(dp433
g16
g158
sg159
g326
sssI9
(dp434
I5
(dp435
g208
I01
sg209
g20
(g24
S'H33333\xe3?'
p436
tp437
Rp438
ssI6
(dp439
g16
g158
sg159
g20
(g24
S'dfffff\xf6\xbf'
p440
tp441
Rp442
ssI7
(dp443
g16
g158
sg159
g20
(g24
S'\xe8\xff\xff\xff\xff\xff\xdf\xbf'
p444
tp445
Rp446
sssI10
(dp447
I8
(dp448
g16
g158
sg159
g338
ssI5
(dp449
g16
g158
sg159
g20
(g24
S'|fffff\xe6?'
p450
tp451
Rp452
ssI6
(dp453
g16
g158
sg159
g346
sssI11
(dp454
I8
(dp455
g16
g158
sg159
g351
ssI5
(dp456
g16
g158
sg159
g234
ssI6
(dp457
g16
g158
sg159
g20
(g24
S'B33333\xfb?'
p458
tp459
Rp460
ssssg239
(dp461
I1
(dp462
I5
g403
sI6
g413
sI7
g423
ssI2
(dp463
I8
g433
sI5
g404
sI6
g414
sI7
g427
ssI3
(dp464
I5
g408
sI6
g418
sI7
g431
ssI5
(dp465
I9
g435
sI10
g449
sI11
g456
ssI6
(dp466
I9
g439
sI10
g453
sI11
g457
ssI7
(dp467
I9
g443
ssI8
(dp468
I10
g448
sI11
g455
ssI9
(dp469
sI10
(dp470
sI11
(dp471
ssg251
g461
sg252
g10
sbag3
(g4
g5
Ntp472
Rp473
(dp474
g9
g10
sg11
g10
sg12
g10
sg13
(dp475
I1
(dp476
g16
I01
sg17
g18
sg19
g20
(g24
S'\x00\x00\x00\x00\x00\x00\x00\x00'
p477
tp478
Rp479
sg30
g36
ssI2
(dp480
g16
I01
sg17
g18
sg19
g20
(g24
S'\x00\x00\x00\x00\x00\x00\x00\x00'
p481
tp482
Rp483
sg30
g51
ssI3
(dp484
g16
I01
sg17
g18
sg19
g20
(g24
S'\x00\x00\x00\x00\x00\x00\x00\x00'
p485
tp486
Rp487
sg30
g61
ssI5
(dp488
g16
I01
sg17
g66
sg19
g20
(g24
S'\x0c\x00\x00\x00\x00\x00\xf0?'
p489
tp490
Rp491
sg30
g72
ssI6
(dp492
g16
I01
sg17
g66
sg19
g20
(g24
S'\x00\x00\x00\x00\x00\x00\x00\xc0'
p493
tp494
Rp495
sg30
g82
ssI7
(dp496
g16
I01
sg17
g66
sg19
g20
(g24
S'\xe8\xff\xff\xff\xff\xff\xdf\xbf'
p497
tp498
Rp499
sg30
g92
ssI8
(dp500
g16
I01
sg17
g66
sg19
g20
(g24
S'\xdc\xcc\xcc\xcc\xcc\xcc\xfc?'
p501
tp502
Rp503
sg30
g102
ssI9
(dp504
g16
I01
sg17
g66
sg19
g20
(g24
S'H33333\xe3?'
p505
tp506
Rp507
sg30
g112
ssI10
(dp508
g16
I01
sg17
g66
sg19
g20
(g24
S' \x9a\x99\x99\x99\x99\xb9?'
p509
tp510
Rp511
sg30
g122
ssI11
(dp512
g16
I01
sg17
g66
sg19
g20
(g24
S'\xcc\xcc\xcc\xcc\xcc\xcc\xfc\xbf'
p513
tp514
Rp515
sg30
g132
sssg136
(dp516
sg138
g3
(g139
g5
Ntp517
Rp518
(dp519
g143
g475
sbsg144
(dp520
I1
(dp521
sI2
(dp522
sI3
(dp523
sI5
(dp524
I2
(dp525
g173
I01
sg174
g20
(g24
S'\xa6\x99\x99\x99\x99\x99\xf1?'
p526
tp527
Rp528
ssI3
(dp529
g16
g158
sg159
g20
(g24
S'\xda\xcc\xcc\xcc\xcc\xcc\xf4?'
p530
tp531
Rp532
sssI6
(dp533
I2
(dp534
g16
g158
sg159
g20
(g24
S'\xa6\x99\x99\x99\x99\x99\xf1?'
p535
tp536
Rp537
ssI3
(dp538
g16
g158
sg159
g20
(g24
S'\\fffff\xe6\xbf'
p539
tp540
Rp541
sssI7
(dp542
I1
(dp543
g16
g158
sg159
g20
(g24
S'\x14\x00\x00\x00\x00\x00\xe0?'
p544
tp545
Rp546
ssI2
(dp547
g16
g158
sg159
g20
(g24
S'vfffff\xfe?'
p548
tp549
Rp550
ssI3
(dp551
S'active'
p552
I01
sS'weight'
p553
g20
(g24
S'\xc0\x99\x99\x99\x99\x99\xd9?'
p554
tp555
Rp556
sssI8
(dp557
I1
(dp558
g16
g158
sg159
g197
ssI2
(dp559
g16
g158
sg159
g20
(g24
S'|fffff\xe6?'
p560
tp561
Rp562
ssI3
(dp563
g16
g158
sg159
g20
(g24
S'\xdc\xcc\xcc\xcc\xcc\xcc\xfc?'
p564
tp565
Rp566
sssI9
(dp567
I5
(dp568
g16
g158
sg159
g20
(g24
S'\xca\xcc\xcc\xcc\xcc\xcc\xf4\xbf'
p569
tp570
Rp571
ssI7
(dp572
g16
g158
sg159
g20
(g24
S'\xcc\xcc\xcc\xcc\xcc\xcc\xfc\xbf'
p573
tp574
Rp575
sssI10
(dp576
I8
(dp577
g16
g158
sg159
g20
(g24
S'\xc4\xcc\xcc\xcc\xcc\xcc\xec\xbf'
p578
tp579
Rp580
ssI5
(dp581
g16
g158
sg159
g20
(g24
S'\\fffff\xe6\xbf'
p582
tp583
Rp584
ssI6
(dp585
g16
g158
sg159
g20
(g24
S'\xc4\xcc\xcc\xcc\xcc\xcc\xec\xbf'
p586
tp587
Rp588
ssI7
(dp589
g16
g158
sg159
g20
(g24
S'\xa6\x99\x99\x99\x99\x99\xf1?'
p590
tp591
Rp592
sssI11
(dp593
I8
(dp594
g16
g158
sg159
g20
(g24
S'\x98\x99\x99\x99\x99\x99\xf9\xbf'
p595
tp596
Rp597
ssI5
(dp598
g16
g158
sg159
g20
(g24
S'tfffff\xf6?'
p599
tp600
Rp601
ssI6
(dp602
g16
g158
sg159
g20
(g24
S'\x08\x00\x00\x00\x00\x00\x00@'
p603
tp604
Rp605
ssI7
(dp606
S'active'
p607
I01
sS'weight'
p608
I10
ssssg239
(dp609
I1
(dp610
I8
g558
sI7
g543
ssI2
(dp611
I8
g559
sI5
g525
sI6
g534
sI7
g547
ssI3
(dp612
I8
g563
sI5
g529
sI6
g538
sI7
g551
ssI5
(dp613
I9
g568
sI10
g581
sI11
g598
ssI6
(dp614
I10
g585
sI11
g602
ssI7
(dp615
I9
g572
sI10
g589
sI11
g606
ssI8
(dp616
I10
g577
sI11
g594
ssI9
(dp617
sI10
(dp618
sI11
(dp619
ssg251
g609
sg252
g10
sbag3
(g4
g5
Ntp620
Rp621
(dp622
g9
g10
sg11
g10
sg12
g10
sg13
(dp623
I1
(dp624
g16
I01
sg17
g18
sg19
g479
sg30
g36
ssI2
(dp625
g16
I01
sg17
g18
sg19
g483
sg30
g51
ssI3
(dp626
g16
I01
sg17
g18
sg19
g487
sg30
g61
ssI5
(dp627
g16
I01
sg17
g66
sg19
g491
sg30
g72
ssI6
(dp628
g16
I01
sg17
g66
sg19
g495
sg30
g82
ssI7
(dp629
g16
I01
sg17
g66
sg19
g499
sg30
g92
ssI8
(dp630
g16
I01
sg17
g66
sg19
g20
(g24
S'\x08\x00\x00\x00\x00\x00\x00@'
p631
tp632
Rp633
sg30
g102
ssI9
(dp634
g16
I01
sg17
g66
sg19
g20
(g24
S'H33333\xe3?'
p635
tp636
Rp637
sg30
g112
ssI10
(dp638
g16
I01
sg17
g66
sg19
g20
(g24
S'\x00\x00\x00\x00\x00\x00\xe0<'
p639
tp640
Rp641
sg30
g122
ssI11
(dp642
g16
I01
sg17
g66
sg19
g515
sg30
g132
sssg136
(dp643
sg138
g3
(g139
g5
Ntp644
Rp645
(dp646
g143
g623
sbsg144
(dp647
I1
(dp648
sI2
(dp649
sI3
(dp650
sI5
(dp651
I1
(dp652
S'active'
p653
I01
sS'weight'
p654
g20
(g24
S'\xf8\xff\xff\xff\xff\xff\xef\xbf'
p655
tp656
Rp657
ssI2
(dp658
g173
I01
sg174
g20
(g24
S'\x0c\x00\x00\x00\x00\x00\xf0?'
p659
tp660
Rp661
ssI3
(dp662
g16
g158
sg159
g532
sssI6
(dp663
I1
(dp664
S'active'
p665
I01
sS'weight'
p666
g20
(g24
S' \x99\x99\x99\x99\x99\xb9\xbf'
p667
tp668
Rp669
ssI3
(dp670
g16
g158
sg159
g20
(g24
S'\x90\x99\x99\x99\x99\x99\xe9\xbf'
p671
tp672
Rp673
sssI7
(dp674
I1
(dp675
g16
g158
sg159
g546
ssI2
(dp676
g16
g158
sg159
g20
(g24
S'\xdc\xcc\xcc\xcc\xcc\xcc\xfc?'
p677
tp678
Rp679
ssI3
(dp680
g552
I01
sg553
g556
sssI8
(dp681
I1
(dp682
g16
g158
sg159
g197
ssI2
(dp683
g16
g158
sg159
g562
ssI3
(dp684
g16
g158
sg159
g566
sssI9
(dp685
I5
(dp686
g16
g158
sg159
g571
ssI7
(dp687
g16
g158
sg159
g575
sssI10
(dp688
I8
(dp689
g16
g158
sg159
g20
(g24
S'\xc4\xcc\xcc\xcc\xcc\xcc\xec\xbf'
p690
tp691
Rp692
ssI5
(dp693
g16
g158
sg159
g584
ssI6
(dp694
g16
g158
sg159
g20
(g24
S'\x90\x99\x99\x99\x99\x99\xe9\xbf'
p695
tp696
Rp697
ssI7
(dp698
g16
g158
sg159
g592
sssI11
(dp699
I5
(dp700
g16
g158
sg159
g601
ssI6
(dp701
g16
g158
sg159
g605
ssI7
(dp702
g607
I01
sg608
I10
ssssg239
(dp703
I1
(dp704
I8
g682
sI5
g652
sI6
g664
sI7
g675
ssI2
(dp705
I8
g683
sI5
g658
sI7
g676
ssI3
(dp706
I8
g684
sI5
g662
sI6
g670
sI7
g680
ssI5
(dp707
I9
g686
sI10
g693
sI11
g700
ssI6
(dp708
I10
g694
sI11
g701
ssI7
(dp709
I9
g687
sI10
g698
sI11
g702
ssI8
(dp710
I10
g689
ssI9
(dp711
sI10
(dp712
sI11
(dp713
ssg251
g703
sg252
g10
sbag3
(g4
g5
Ntp714
Rp715
(dp716
g9
g10
sg11
g10
sg12
g10
sg13
(dp717
I1
(dp718
g16
I01
sg17
g18
sg19
g479
sg30
g36
ssI2
(dp719
g16
I01
sg17
g18
sg19
g483
sg30
g51
ssI3
(dp720
g16
I01
sg17
g18
sg19
g487
sg30
g61
ssI5
(dp721
g16
I01
sg17
g66
sg19
g491
sg30
g72
ssI6
(dp722
g16
I01
sg17
g66
sg19
g495
sg30
g82
ssI7
(dp723
g16
I01
sg17
g66
sg19
g499
sg30
g92
ssI8
(dp724
g16
I01
sg17
g66
sg19
g20
(g24
S'vfffff\xfe?'
p725
tp726
Rp727
sg30
g102
ssI9
(dp728
g16
I01
sg17
g66
sg19
g637
sg30
g112
ssI10
(dp729
g16
I01
sg17
g66
sg19
g641
sg30
g122
ssI11
(dp730
g16
I01
sg17
g66
sg19
g515
sg30
g132
sssg136
(dp731
sg138
g3
(g139
g5
Ntp732
Rp733
(dp734
g143
g717
sbsg144
(dp735
I1
(dp736
sI2
(dp737
sI3
(dp738
sI5
(dp739
I1
(dp740
g653
I01
sg654
g657
ssI2
(dp741
g173
I01
sg174
g661
ssI3
(dp742
g16
g158
sg159
g532
sssI6
(dp743
I1
(dp744
g665
I01
sg666
g669
ssI3
(dp745
g16
g158
sg159
g541
sssI7
(dp746
I1
(dp747
g16
g158
sg159
g546
ssI2
(dp748
g16
g158
sg159
g679
ssI3
(dp749
g552
I01
sg553
g556
sssI8
(dp750
I1
(dp751
g16
g158
sg159
g197
ssI2
(dp752
g16
g158
sg159
g562
ssI3
(dp753
g16
g158
sg159
g566
sssI9
(dp754
I5
(dp755
g16
g158
sg159
g571
ssI7
(dp756
g16
g158
sg159
g575
sssI10
(dp757
I8
(dp758
g16
g158
sg159
g692
ssI5
(dp759
g16
g158
sg159
g584
ssI6
(dp760
g16
g158
sg159
g697
ssI7
(dp761
g16
g158
sg159
g592
sssI11
(dp762
I8
(dp763
g16
g158
sg159
g20
(g24
S'233333\xfb\xbf'
p764
tp765
Rp766
ssI5
(dp767
g16
g158
sg159
g601
ssI6
(dp768
g16
g158
sg159
g605
ssI7
(dp769
g607
I01
sg608
I10
ssssg239
(dp770
I1
(dp771
I8
g751
sI5
g740
sI6
g744
sI7
g747
ssI2
(dp772
I8
g752
sI5
g741
sI7
g748
ssI3
(dp773
I8
g753
sI5
g742
sI6
g745
sI7
g749
ssI5
(dp774
I9
g755
sI10
g759
sI11
g767
ssI6
(dp775
I10
g760
sI11
g768
ssI7
(dp776
I9
g756
sI10
g761
sI11
g769
ssI8
(dp777
I10
g758
sI11
g763
ssI9
(dp778
sI10
(dp779
sI11
(dp780
ssg251
g770
sg252
g10
sbag3
(g4
g5
Ntp781
Rp782
(dp783
g9
g10
sg11
g10
sg12
g10
sg13
(dp784
I1
(dp785
g16
I01
sg17
g18
sg19
g479
sg30
g36
ssI2
(dp786
g16
I01
sg17
g18
sg19
g483
sg30
g51
ssI3
(dp787
g16
I01
sg17
g18
sg19
g487
sg30
g61
ssI5
(dp788
g16
I01
sg17
g66
sg19
g491
sg30
g72
ssI6
(dp789
g16
I01
sg17
g66
sg19
g495
sg30
g82
ssI7
(dp790
g16
I01
sg17
g66
sg19
g20
(g24
S'(33333\xe3\xbf'
p791
tp792
Rp793
sg30
g92
ssI8
(dp794
g16
I01
sg17
g66
sg19
g503
sg30
g102
ssI9
(dp795
g16
I01
sg17
g66
sg19
g637
sg30
g112
ssI10
(dp796
g16
I01
sg17
g66
sg19
g641
sg30
g122
ssI11
(dp797
g16
I01
sg17
g66
sg19
g515
sg30
g132
sssg136
(dp798
sg138
g3
(g139
g5
Ntp799
Rp800
(dp801
g143
g784
sbsg144
(dp802
I1
(dp803
sI2
(dp804
sI3
(dp805
sI5
(dp806
I1
(dp807
g607
I01
sg608
g162
ssI2
(dp808
g173
I01
sg174
g20
(g24
S'\xa6\x99\x99\x99\x99\x99\xf1?'
p809
tp810
Rp811
ssI3
(dp812
g16
g158
sg159
g532
sssI6
(dp813
I1
(dp814
g665
I01
sg666
g669
ssI2
(dp815
g16
g158
sg159
g537
ssI3
(dp816
g16
g158
sg159
g20
(g24
S'(33333\xe3\xbf'
p817
tp818
Rp819
sssI7
(dp820
I1
(dp821
g16
g158
sg159
g20
(g24
S'H33333\xe3?'
p822
tp823
Rp824
ssI2
(dp825
g16
g158
sg159
g550
ssI3
(dp826
g552
I01
sg553
g556
sssI8
(dp827
I1
(dp828
g16
g158
sg159
g197
ssI2
(dp829
g16
g158
sg159
g562
ssI3
(dp830
g16
g158
sg159
g566
sssI9
(dp831
I8
(dp832
g16
g158
sg159
g20
(g24
S'\xb0\x99\x99\x99\x99\x99\xe9?'
p833
tp834
Rp835
ssI5
(dp836
g16
g158
sg159
g571
ssI7
(dp837
g16
g158
sg159
g20
(g24
S'\x00\x00\x00\x00\x00\x00\x00\xc0'
p838
tp839
Rp840
sssI10
(dp841
I8
(dp842
g16
g158
sg159
g20
(g24
S'\xc4\xcc\xcc\xcc\xcc\xcc\xec\xbf'
p843
tp844
Rp845
ssI5
(dp846
g16
g158
sg159
g584
ssI6
(dp847
g16
g158
sg159
g20
(g24
S'\xf8\xff\xff\xff\xff\xff\xef\xbf'
p848
tp849
Rp850
ssI7
(dp851
g16
g158
sg159
g20
(g24
S'@33333\xf3?'
p852
tp853
Rp854
sssI11
(dp855
I8
(dp856
g16
g158
sg159
g20
(g24
S'\xfe\xff\xff\xff\xff\xff\xf7\xbf'
p857
tp858
Rp859
ssI5
(dp860
g16
g158
sg159
g601
ssI6
(dp861
g16
g158
sg159
g605
ssI7
(dp862
g607
I01
sg608
I10
ssssg239
(dp863
I1
(dp864
I8
g828
sI5
g807
sI6
g814
sI7
g821
ssI2
(dp865
I8
g829
sI5
g808
sI6
g815
sI7
g825
ssI3
(dp866
I8
g830
sI5
g812
sI6
g816
sI7
g826
ssI5
(dp867
I9
g836
sI10
g846
sI11
g860
ssI6
(dp868
I10
g847
sI11
g861
ssI7
(dp869
I9
g837
sI10
g851
sI11
g862
ssI8
(dp870
I9
g832
sI10
g842
sI11
g856
ssI9
(dp871
sI10
(dp872
sI11
(dp873
ssg251
g863
sg252
g10
sbag3
(g4
g5
Ntp874
Rp875
(dp876
g9
g10
sg11
g10
sg12
g10
sg13
(dp877
I1
(dp878
g16
I01
sg17
g18
sg19
g479
sg30
g36
ssI2
(dp879
g16
I01
sg17
g18
sg19
g483
sg30
g51
ssI3
(dp880
g16
I01
sg17
g18
sg19
g487
sg30
g61
ssI5
(dp881
g16
I01
sg17
g66
sg19
g20
(g24
S'\xe4\xcc\xcc\xcc\xcc\xcc\xec?'
p882
tp883
Rp884
sg30
g72
ssI6
(dp885
g16
I01
sg17
g66
sg19
g495
sg30
g82
ssI7
(dp886
g16
I01
sg17
g66
sg19
g20
(g24
S'\\fffff\xe6\xbf'
p887
tp888
Rp889
sg30
g92
ssI8
(dp890
g16
I01
sg17
g66
sg19
g503
sg30
g102
ssI9
(dp891
g16
I01
sg17
g66
sg19
g637
sg30
g112
ssI10
(dp892
g16
I01
sg17
g66
sg19
g20
(g24
S' \x99\x99\x99\x99\x99\xb9\xbf'
p893
tp894
Rp895
sg30
g122
ssI11
(dp896
g16
I01
sg17
g66
sg19
g515
sg30
g132
sssg136
(dp897
sg138
g3
(g139
g5
Ntp898
Rp899
(dp900
g143
g877
sbsg144
(dp901
I1
(dp902
sI2
(dp903
sI3
(dp904
sI5
(dp905
I1
(dp906
g16
g158
sg159
g20
(g24
S'\xe4\xcc\xcc\xcc\xcc\xcc\xec?'
p907
tp908
Rp909
ssI3
(dp910
g16
g158
sg159
g20
(g24
S'\xda\xcc\xcc\xcc\xcc\xcc\xf4?'
p911
tp912
Rp913
sssI6
(dp914
I2
(dp915
g16
g158
sg159
g20
(g24
S'@33333\xf3?'
p916
tp917
Rp918
ssI3
(dp919
g16
g158
sg159
g819
sssI7
(dp920
I1
(dp921
g16
g158
sg159
g20
(g24
S'|fffff\xe6?'
p922
tp923
Rp924
ssI2
(dp925
g16
g158
sg159
g550
ssI3
(dp926
g16
g158
sg159
g20
(g24
S'@33333\xf3?'
p927
tp928
Rp929
sssI8
(dp930
I1
(dp931
g16
g158
sg159
g197
ssI2
(dp932
g16
g158
sg159
g20
(g24
S'H33333\xe3?'
p933
tp934
Rp935
ssI3
(dp936
g16
g158
sg159
g566
sssI9
(dp937
I8
(dp938
g16
g158
sg159
g20
(g24
S'\x0c\x00\x00\x00\x00\x00\xf0?'
p939
tp940
Rp941
ssI5
(dp942
g16
g158
sg159
g20
(g24
S'033333\xf3\xbf'
p943
tp944
Rp945
ssI6
(dp946
g16
g158
sg159
g20
(g24
S'B33333\xfb?'
p947
tp948
Rp949
ssI7
(dp950
g16
g158
sg159
g20
(g24
S'\xcc\xcc\xcc\xcc\xcc\xcc\xfc\xbf'
p951
tp952
Rp953
sssI10
(dp954
I8
(dp955
g16
g158
sg159
g20
(g24
S'\x90\x99\x99\x99\x99\x99\xe9\xbf'
p956
tp957
Rp958
ssI5
(dp959
g16
g158
sg159
g20
(g24
S'\xc4\xcc\xcc\xcc\xcc\xcc\xec\xbf'
p960
tp961
Rp962
ssI6
(dp963
g16
g158
sg159
g20
(g24
S'\\fffff\xe6\xbf'
p964
tp965
Rp966
ssI7
(dp967
g16
g158
sg159
g20
(g24
S'@33333\xf3?'
p968
tp969
Rp970
sssI11
(dp971
I8
(dp972
g16
g158
sg159
g20
(g24
S'\xfe\xff\xff\xff\xff\xff\xf7\xbf'
p973
tp974
Rp975
ssI5
(dp976
g16
g158
sg159
g20
(g24
S'\xda\xcc\xcc\xcc\xcc\xcc\xf4?'
p977
tp978
Rp979
ssI6
(dp980
g16
g158
sg159
g605
ssssg239
(dp981
I1
(dp982
I8
g931
sI5
g906
sI7
g921
ssI2
(dp983
I8
g932
sI6
g915
sI7
g925
ssI3
(dp984
I8
g936
sI5
g910
sI6
g919
sI7
g926
ssI5
(dp985
I9
g942
sI10
g959
sI11
g976
ssI6
(dp986
I9
g946
sI10
g963
sI11
g980
ssI7
(dp987
I9
g950
sI10
g967
ssI8
(dp988
I9
g938
sI10
g955
sI11
g972
ssI9
(dp989
sI10
(dp990
sI11
(dp991
ssg251
g981
sg252
g10
sbaNaNaa(lp992
g3
(g4
g5
Ntp993
Rp994
(dp995
g9
g10
sg11
g10
sg12
g10
sg13
(dp996
I1
(dp997
g16
I01
sg17
g18
sg19
g29
sg30
g36
ssI2
(dp998
g16
I01
sg17
g18
sg19
g48
sg30
g51
ssI3
(dp999
g16
I01
sg17
g18
sg19
g58
sg30
g61
ssI5
(dp1000
g16
I01
sg17
g66
sg19
g263
sg30
g72
ssI6
(dp1001
g16
I01
sg17
g66
sg19
g267
sg30
g82
ssI7
(dp1002
g16
I01
sg17
g66
sg19
g271
sg30
g92
ssI8
(dp1003
g16
I01
sg17
g66
sg19
g275
sg30
g102
ssI9
(dp1004
g16
I01
sg17
g66
sg19
g279
sg30
g112
ssI10
(dp1005
g16
I01
sg17
g66
sg19
g119
sg30
g122
ssI11
(dp1006
g16
I01
sg17
g66
sg19
g129
sg30
g132
sssg136
(dp1007
sg138
g3
(g139
g5
Ntp1008
Rp1009
(dp1010
g143
g996
sbsg144
(dp1011
I1
(dp1012
sI2
(dp1013
sI3
(dp1014
sI5
(dp1015
I1
(dp1016
g16
g158
sg159
g294
ssI2
(dp1017
g16
g158
sg159
g20
(g24
S'\xa6\x99\x99\x99\x99\x99\xf1?'
p1018
tp1019
Rp1020
ssI3
(dp1021
g16
g158
sg159
g170
sssI6
(dp1022
I2
(dp1023
g16
g158
sg159
g308
ssI3
(dp1024
g16
g158
sg159
g312
sssI7
(dp1025
I1
(dp1026
g16
g158
sg159
g317
ssI3
(dp1027
g16
g158
sg159
g20
(g24
S'\xc0\x99\x99\x99\x99\x99\xd9?'
p1028
tp1029
Rp1030
sssI8
(dp1031
I2
(dp1032
g16
g158
sg159
g20
(g24
S'\xfe\xff\xff\xff\xff\xff\xf7\xbf'
p1033
tp1034
Rp1035
sssI9
(dp1036
I8
(dp1037
g16
g158
sg159
g331
ssI5
(dp1038
g208
I01
sg209
g212
ssI6
(dp1039
g16
g158
sg159
g20
(g24
S'\x98\x99\x99\x99\x99\x99\xf9\xbf'
p1040
tp1041
Rp1042
sssI10
(dp1043
I8
(dp1044
g16
g158
sg159
g20
(g24
S'vfffff\xfe?'
p1045
tp1046
Rp1047
ssI5
(dp1048
g16
g158
sg159
g20
(g24
S'\x14\x00\x00\x00\x00\x00\xe0?'
p1049
tp1050
Rp1051
ssI6
(dp1052
g16
g158
sg159
g346
sssI11
(dp1053
I8
(dp1054
g16
g158
sg159
g351
ssI5
(dp1055
g16
g158
sg159
g234
ssI6
(dp1056
g16
g158
sg159
g356
ssssg239
(dp1057
I1
(dp1058
I5
g1016
sI7
g1026
ssI2
(dp1059
I8
g1032
sI5
g1017
sI6
g1023
ssI3
(dp1060
I5
g1021
sI6
g1024
sI7
g1027
ssI5
(dp1061
I9
g1038
sI10
g1048
sI11
g1055
ssI6
(dp1062
I9
g1039
sI10
g1052
sI11
g1056
ssI7
(dp1063
sI8
(dp1064
I9
g1037
sI10
g1044
sI11
g1054
ssI9
(dp1065
sI10
(dp1066
sI11
(dp1067
ssg251
g1057
sg252
g10
sbag3
(g4
g5
Ntp1068
Rp1069
(dp1070
g9
g10
sg11
g10
sg12
g10
sg13
(dp1071
I1
(dp1072
g16
I01
sg17
g18
sg19
g29
sg30
g36
ssI2
(dp1073
g16
I01
sg17
g18
sg19
g48
sg30
g51
ssI3
(dp1074
g16
I01
sg17
g18
sg19
g58
sg30
g61
ssI5
(dp1075
g16
I01
sg17
g66
sg19
g263
sg30
g72
ssI6
(dp1076
g16
I01
sg17
g66
sg19
g267
sg30
g82
ssI7
(dp1077
g16
I01
sg17
g66
sg19
g271
sg30
g92
ssI8
(dp1078
g16
I01
sg17
g66
sg19
g275
sg30
g102
ssI9
(dp1079
g16
I01
sg17
g66
sg19
g20
(g24
S'\xfe\xff\xff\xff\xff\xff\xf7\xbf'
p1080
tp1081
Rp1082
sg30
g112
ssI10
(dp1083
g16
I01
sg17
g66
sg19
g119
sg30
g122
ssI11
(dp1084
g16
I01
sg17
g66
sg19
g129
sg30
g132
sssg136
(dp1085
sg138
g3
(g139
g5
Ntp1086
Rp1087
(dp1088
g143
g1071
sbsg144
(dp1089
I1
(dp1090
sI2
(dp1091
sI3
(dp1092
sI5
(dp1093
I1
(dp1094
g16
g158
sg159
g20
(g24
S'\x96\x99\x99\x99\x99\x99\xf1\xbf'
p1095
tp1096
Rp1097
ssI3
(dp1098
g16
g158
sg159
g170
sssI6
(dp1099
I1
(dp1100
g173
I01
sg174
g304
ssI2
(dp1101
g16
g158
sg159
g308
ssI3
(dp1102
g16
g158
sg159
g312
sssI7
(dp1103
I1
(dp1104
g16
g158
sg159
g317
ssI3
(dp1105
g16
g158
sg159
g321
sssI8
(dp1106
I2
(dp1107
g16
g158
sg159
g326
sssI9
(dp1108
I8
(dp1109
g16
g158
sg159
g331
ssI5
(dp1110
g208
I01
sg209
g212
ssI6
(dp1111
g16
g158
sg159
g216
sssI10
(dp1112
I8
(dp1113
g16
g158
sg159
g338
ssI5
(dp1114
g16
g158
sg159
g342
ssI6
(dp1115
g16
g158
sg159
g346
sssI11
(dp1116
I8
(dp1117
g16
g158
sg159
g351
ssI5
(dp1118
g16
g158
sg159
g234
ssI6
(dp1119
g16
g158
sg159
g356
ssssg239
(dp1120
I1
(dp1121
I5
g1094
sI6
g1100
sI7
g1104
ssI2
(dp1122
I8
g1107
sI6
g1101
ssI3
(dp1123
I5
g1098
sI6
g1102
sI7
g1105
ssI5
(dp1124
I9
g1110
sI10
g1114
sI11
g1118
ssI6
(dp1125
I9
g1111
sI10
g1115
sI11
g1119
ssI7
(dp1126
sI8
(dp1127
I9
g1109
sI10
g1113
sI11
g1117
ssI9
(dp1128
sI10
(dp1129
sI11
(dp1130
ssg251
g1120
sg252
g10
sbag3
(g4
g5
Ntp1131
Rp1132
(dp1133
g9
g10
sg11
g10
sg12
g10
sg13
(dp1134
I1
(dp1135
g16
I01
sg17
g18
sg19
g29
sg30
g36
ssI2
(dp1136
g16
I01
sg17
g18
sg19
g48
sg30
g51
ssI3
(dp1137
g16
I01
sg17
g18
sg19
g58
sg30
g61
ssI5
(dp1138
g16
I01
sg17
g66
sg19
g20
(g24
S'\x90\x99\x99\x99\x99\x99\xe9\xbf'
p1139
tp1140
Rp1141
sg30
g72
ssI6
(dp1142
g16
I01
sg17
g66
sg19
g20
(g24
S'\xcc\xcc\xcc\xcc\xcc\xcc\xfc\xbf'
p1143
tp1144
Rp1145
sg30
g82
ssI7
(dp1146
g16
I01
sg17
g66
sg19
g89
sg30
g92
ssI8
(dp1147
g16
I01
sg17
g66
sg19
g275
sg30
g102
ssI9
(dp1148
g16
I01
sg17
g66
sg19
g20
(g24
S'dfffff\xf6\xbf'
p1149
tp1150
Rp1151
sg30
g112
ssI10
(dp1152
g16
I01
sg17
g66
sg19
g119
sg30
g122
ssI11
(dp1153
g16
I01
sg17
g66
sg19
g129
sg30
g132
sssg136
(dp1154
sg138
g3
(g139
g5
Ntp1155
Rp1156
(dp1157
g143
g1134
sbsg144
(dp1158
I1
(dp1159
sI2
(dp1160
sI3
(dp1161
sI5
(dp1162
I1
(dp1163
g16
g158
sg159
g657
ssI2
(dp1164
g16
g158
sg159
g20
(g24
S'\x0c\x00\x00\x00\x00\x00\xf0?'
p1165
tp1166
Rp1167
ssI3
(dp1168
g16
g158
sg159
g170
sssI6
(dp1169
I1
(dp1170
g173
I01
sg174
g304
ssI2
(dp1171
g16
g158
sg159
g20
(g24
S'\xc4\xcc\xcc\xcc\xcc\xcc\xec\xbf'
p1172
tp1173
Rp1174
ssI3
(dp1175
g16
g158
sg159
g185
sssI7
(dp1176
I1
(dp1177
g16
g158
sg159
g20
(g24
S'`\x99\x99\x99\x99\x99\xc9\xbf'
p1178
tp1179
Rp1180
ssI2
(dp1181
g193
I01
sg194
g20
(g24
S'\x08\x00\x00\x00\x00\x00\x00@'
p1182
tp1183
Rp1184
ssI3
(dp1185
g16
g158
sg159
g321
sssI8
(dp1186
I2
(dp1187
g16
g158
sg159
g20
(g24
S'233333\xfb\xbf'
p1188
tp1189
Rp1190
sssI9
(dp1191
I8
(dp1192
g16
g158
sg159
g20
(g24
S'\xda\xcc\xcc\xcc\xcc\xcc\xf4?'
p1193
tp1194
Rp1195
ssI5
(dp1196
g208
I01
sg209
g212
ssI6
(dp1197
g16
g158
sg159
g20
(g24
S'dfffff\xf6\xbf'
p1198
tp1199
Rp1200
sssI10
(dp1201
I8
(dp1202
g16
g158
sg159
g20
(g24
S'B33333\xfb?'
p1203
tp1204
Rp1205
ssI6
(dp1206
g16
g158
sg159
g20
(g24
S' \x9a\x99\x99\x99\x99\xb9?'
p1207
tp1208
Rp1209
sssI11
(dp1210
I8
(dp1211
g16
g158
sg159
g230
ssI5
(dp1212
g16
g158
sg159
g20
(g24
S'\x96\x99\x99\x99\x99\x99\xf1\xbf'
p1213
tp1214
Rp1215
ssI6
(dp1216
g16
g158
sg159
g20
(g24
S'\xa8\x99\x99\x99\x99\x99\xf9?'
p1217
tp1218
Rp1219
ssssg239
(dp1220
I1
(dp1221
I5
g1163
sI6
g1170
sI7
g1177
ssI2
(dp1222
I8
g1187
sI5
g1164
sI6
g1171
sI7
g1181
ssI3
(dp1223
I5
g1168
sI6
g1175
sI7
g1185
ssI5
(dp1224
I9
g1196
sI11
g1212
ssI6
(dp1225
I9
g1197
sI10
g1206
sI11
g1216
ssI7
(dp1226
sI8
(dp1227
I9
g1192
sI10
g1202
sI11
g1211
ssI9
(dp1228
sI10
(dp1229
sI11
(dp1230
ssg251
g1220
sg252
g10
sbaNaNaNaNaNaNaNaa(lp1231
NaNaNaNaNaNaNaNaNaNaa(lp1232
NaNaNaNaNaNaNaNaNaNaa(lp1233
NaNaNaNaNaNaNaNaNaNaa(lp1234
NaNaNaNaNaNaNaNaNaNaa(lp1235
NaNaNaNaNaNaNaNaNaNaa(lp1236
NaNaNaNaNaNaNaNaNaNaa(lp1237
NaNaNaNaNaNaNaNaNaNaa.