(lp0
(lp1
NaNaNaNaNaNaNaNaNaNaa(lp2
NaNaccopy_reg
_reconstructor
p3
(cnetworkx.classes.digraph
DiGraph
p4
c__builtin__
object
p5
Ntp6
Rp7
(dp8
S'adjlist_inner_dict_factory'
p9
c__builtin__
dict
p10
sS'node_dict_factory'
p11
g10
sS'edge_attr_dict_factory'
p12
g10
sS'_node'
p13
(dp14
I1
(dp15
S'active'
p16
I01
sS'ActFunc'
p17
cNeuralNet.activations
noFunc
p18
sS'bias'
p19
cnumpy.core.multiarray
scalar
p20
(cnumpy
dtype
p21
(S'f8'
p22
I0
I1
tp23
Rp24
(I3
S'<'
p25
NNNI-1
I-1
I0
tp26
bS'\x00\x00\x00\x00\x00\x00\x00\x00'
p27
tp28
Rp29
sS'pos'
p30
cnumpy.core.multiarray
_reconstruct
p31
(cnumpy
ndarray
p32
(I0
tp33
S'b'
p34
tp35
Rp36
(I1
(I2
tp37
g21
(S'i8'
p38
I0
I1
tp39
Rp40
(I3
S'<'
p41
NNNI-1
I-1
I0
tp42
bI00
S'\x00\x00\x00\x00\x00\x00\x00\x00\x00\x00\x00\x00\x00\x00\x00\x00'
p43
tp44
bssI2
(dp45
g16
I01
sg17
g18
sg19
g20
(g24
S'\x00\x00\x00\x00\x00\x00\x00\x00'
p46
tp47
Rp48
sg30
g31
(g32
(I0
tp49
g34
tp50
Rp51
(I1
(I2
tp52
g40
I00
S'\x01\x00\x00\x00\x00\x00\x00\x00\x00\x00\x00\x00\x00\x00\x00\x00'
p53
tp54
bssI3
(dp55
g16
I01
sg17
g18
sg19
g20
(g24
S'\x00\x00\x00\x00\x00\x00\x00\x00'
p56
tp57
Rp58
sg30
g31
(g32
(I0
tp59
g34
tp60
Rp61
(I1
(I2
tp62
g40
I00
S'\x02\x00\x00\x00\x00\x00\x00\x00\x00\x00\x00\x00\x00\x00\x00\x00'
p63
tp64
bssI5
(dp65
g16
I01
sg17
cNeuralNet.activations
tanh
p66
sg19
g20
(g24
S'\xc4\xcc\xcc\xcc\xcc\xcc\xec\xbf'
p67
tp68
Rp69
sg30
g31
(g32
(I0
tp70
g34
tp71
Rp72
(I1
(I2
tp73
g40
I00
S'\x00\x00\x00\x00\x00\x00\x00\x00\x01\x00\x00\x00\x00\x00\x00\x00'
p74
tp75
bssI6
(dp76
g16
I01
sg17
g66
sg19
g20
(g24
S'\x08\x00\x00\x00\x00\x00\x00@'
p77
tp78
Rp79
sg30
g31
(g32
(I0
tp80
g34
tp81
Rp82
(I1
(I2
tp83
g40
I00
S'\x01\x00\x00\x00\x00\x00\x00\x00\x01\x00\x00\x00\x00\x00\x00\x00'
p84
tp85
bssI7
(dp86
g16
I01
sg17
g66
sg19
g20
(g24
S'033333\xf3\xbf'
p87
tp88
Rp89
sg30
g31
(g32
(I0
tp90
g34
tp91
Rp92
(I1
(I2
tp93
g40
I00
S'\x02\x00\x00\x00\x00\x00\x00\x00\x01\x00\x00\x00\x00\x00\x00\x00'
p94
tp95
bssI8
(dp96
g16
I01
sg17
g66
sg19
g20
(g24
S'\x0c\x00\x00\x00\x00\x00\xf0?'
p97
tp98
Rp99
sg30
g31
(g32
(I0
tp100
g34
tp101
Rp102
(I1
(I2
tp103
g40
I00
S'\x03\x00\x00\x00\x00\x00\x00\x00\x01\x00\x00\x00\x00\x00\x00\x00'
p104
tp105
bssI9
(dp106
g16
I01
sg17
g66
sg19
g20
(g24
S'ffffff\xfe\xbf'
p107
tp108
Rp109
sg30
g31
(g32
(I0
tp110
g34
tp111
Rp112
(I1
(I2
tp113
g40
I00
S'\x00\x00\x00\x00\x00\x00\x00\x00\x02\x00\x00\x00\x00\x00\x00\x00'
p114
tp115
bssI10
(dp116
g16
I01
sg17
g66
sg19
g20
(g24
S'`\x99\x99\x99\x99\x99\xc9\xbf'
p117
tp118
Rp119
sg30
g31
(g32
(I0
tp120
g34
tp121
Rp122
(I1
(I2
tp123
g40
I00
S'\x01\x00\x00\x00\x00\x00\x00\x00\x02\x00\x00\x00\x00\x00\x00\x00'
p124
tp125
bssI11
(dp126
g16
I01
sg17
g66
sg19
g20
(g24
S'vfffff\xfe?'
p127
tp128
Rp129
sg30
g31
(g32
(I0
tp130
g34
tp131
Rp132
(I1
(I2
tp133
g40
I00
S'\x02\x00\x00\x00\x00\x00\x00\x00\x02\x00\x00\x00\x00\x00\x00\x00'
p134
tp135
bsssS'graph'
p136
(dp137
sS'nodes'
p138
g3
(cnetworkx.classes.reportviews
NodeView
p139
g5
Ntp140
Rp141
(dp142
S'_nodes'
p143
g14
sbsS'_pred'
p144
(dp145
I1
(dp146
sI2
(dp147
sI3
(dp148
sI5
(dp149
I1
(dp150
g16
g20
(g21
(S'b1'
p151
I0
I1
tp152
Rp153
(I3
S'|'
p154
NNNI-1
I-1
I0
tp155
bS'\x01'
p156
tp157
Rp158
sS'weight'
p159
g20
(g24
S'\xe8\xff\xff\xff\xff\xff\xdf\xbf'
p160
tp161
Rp162
ssI2
(dp163
g16
g158
sg159
g20
(g24
S'ffffff\xfe\xbf'
p164
tp165
Rp166
ssI3
(dp167
g16
g158
sg159
g20
(g24
S'\xca\xcc\xcc\xcc\xcc\xcc\xf4\xbf'
p168
tp169
Rp170
sssI6
(dp171
I1
(dp172
g16
g158
sg159
g20
(g24
S' \x99\x99\x99\x99\x99\xb9\xbf'
p173
tp174
Rp175
ssI2
(dp176
g16
g158
sg159
g20
(g24
S'\xb0\x99\x99\x99\x99\x99\xe9?'
p177
tp178
Rp179
ssI3
(dp180
g16
g158
sg159
g20
(g24
S'\xc0\x99\x99\x99\x99\x99\xd9?'
p181
tp182
Rp183
sssI7
(dp184
I1
(dp185
g16
g158
sg159
g20
(g24
S'\xca\xcc\xcc\xcc\xcc\xcc\xf4\xbf'
p186
tp187
Rp188
ssI2
(dp189
g16
g158
sg159
g20
(g24
S'\x00\x00\x00\x00\x00\x00\xe0<'
p190
tp191
Rp192
ssI3
(dp193
g16
g158
sg159
g20
(g24
S'\\fffff\xe6\xbf'
p194
tp195
Rp196
sssI8
(dp197
I1
(dp198
g16
g158
sg159
g20
(g24
S'tfffff\xf6?'
p199
tp200
Rp201
ssI2
(dp202
g16
g158
sg159
g20
(g24
S'\x98\x99\x99\x99\x99\x99\xf9\xbf'
p203
tp204
Rp205
ssI3
(dp206
g16
g158
sg159
g20
(g24
S'\xa6\x99\x99\x99\x99\x99\xf1?'
p207
tp208
Rp209
sssI9
(dp210
I5
(dp211
g16
g158
sg159
g20
(g24
S'\xb0\x99\x99\x99\x99\x99\xe9?'
p212
tp213
Rp214
ssI6
(dp215
g16
g158
sg159
g20
(g24
S'\x90\x99\x99\x99\x99\x99\xe9\xbf'
p216
tp217
Rp218
ssI7
(dp219
g16
g158
sg159
g20
(g24
S'\xcc\xcc\xcc\xcc\xcc\xcc\xfc\xbf'
p220
tp221
Rp222
sssI10
(dp223
I8
(dp224
g16
g158
sg159
g20
(g24
S'\\fffff\xe6\xbf'
p225
tp226
Rp227
ssI5
(dp228
g16
g158
sg159
g20
(g24
S'\x1833333\xd3\xbf'
p229
tp230
Rp231
ssI6
(dp232
g16
g158
sg159
g20
(g24
S'\x00\x00\x00\x00\x00\x00\xe0<'
p233
tp234
Rp235
ssI7
(dp236
g16
g158
sg159
g20
(g24
S'\xe8\xff\xff\xff\xff\xff\xdf\xbf'
p237
tp238
Rp239
sssI11
(dp240
I8
(dp241
g16
g158
sg159
g20
(g24
S'tfffff\xf6?'
p242
tp243
Rp244
ssI5
(dp245
g16
g158
sg159
g20
(g24
S'X33333\xd3?'
p246
tp247
Rp248
ssI6
(dp249
g16
g158
sg159
g20
(g24
S'H33333\xe3?'
p250
tp251
Rp252
ssssS'_succ'
p253
(dp254
I1
(dp255
I8
g198
sI5
g150
sI6
g172
sI7
g185
ssI2
(dp256
I8
g202
sI5
g163
sI6
g176
sI7
g189
ssI3
(dp257
I8
g206
sI5
g167
sI6
g180
sI7
g193
ssI5
(dp258
I9
g211
sI10
g228
sI11
g245
ssI6
(dp259
I9
g215
sI10
g232
sI11
g249
ssI7
(dp260
I9
g219
sI10
g236
ssI8
(dp261
I10
g224
sI11
g241
ssI9
(dp262
sI10
(dp263
sI11
(dp264
ssS'_adj'
p265
g254
sS'adjlist_outer_dict_factory'
p266
g10
sbag3
(g4
g5
Ntp267
Rp268
(dp269
g9
g10
sg11
g10
sg12
g10
sg13
(dp270
I1
(dp271
g16
I01
sg17
g18
sg19
g20
(g24
S'\x00\x00\x00\x00\x00\x00\x00\x00'
p272
tp273
Rp274
sg30
g36
ssI2
(dp275
g16
I01
sg17
g18
sg19
g20
(g24
S'\x00\x00\x00\x00\x00\x00\x00\x00'
p276
tp277
Rp278
sg30
g51
ssI3
(dp279
g16
I01
sg17
g18
sg19
g20
(g24
S'\x00\x00\x00\x00\x00\x00\x00\x00'
p280
tp281
Rp282
sg30
g61
ssI5
(dp283
g16
I01
sg17
g66
sg19
g20
(g24
S'\x90\x99\x99\x99\x99\x99\xe9\xbf'
p284
tp285
Rp286
sg30
g72
ssI6
(dp287
g16
I01
sg17
g66
sg19
g20
(g24
S'\x98\x99\x99\x99\x99\x99\xf9\xbf'
p288
tp289
Rp290
sg30
g82
ssI7
(dp291
g16
I01
sg17
g66
sg19
g20
(g24
S'\xf8\xff\xff\xff\xff\xff\xef\xbf'
p292
tp293
Rp294
sg30
g92
ssI8
(dp295
g16
I01
sg17
g66
sg19
g20
(g24
S'B33333\xfb?'
p296
tp297
Rp298
sg30
g102
ssI9
(dp299
g16
I01
sg17
g66
sg19
g20
(g24
S'dfffff\xf6\xbf'
p300
tp301
Rp302
sg30
g112
ssI10
(dp303
g16
I01
sg17
g66
sg19
g20
(g24
S'ffffff\xfe\xbf'
p304
tp305
Rp306
sg30
g122
ssI11
(dp307
g16
I01
sg17
g66
sg19
g20
(g24
S'vfffff\xfe?'
p308
tp309
Rp310
sg30
g132
sssg136
(dp311
sg138
g3
(g139
g5
Ntp312
Rp313
(dp314
g143
g270
sbsg144
(dp315
I1
(dp316
sI2
(dp317
sI3
(dp318
sI5
(dp319
I1
(dp320
g16
g158
sg159
g20
(g24
S'\x96\x99\x99\x99\x99\x99\xf1\xbf'
p321
tp322
Rp323
ssI2
(dp324
g16
g158
sg159
g20
(g24
S'\x0c\x00\x00\x00\x00\x00\xf0?'
p325
tp326
Rp327
ssI3
(dp328
g16
g158
sg159
g20
(g24
S'\x1833333\xd3\xbf'
p329
tp330
Rp331
sssI6
(dp332
I2
(dp333
g16
g158
sg159
g20
(g24
S'\xc4\xcc\xcc\xcc\xcc\xcc\xec\xbf'
p334
tp335
Rp336
ssI3
(dp337
g16
g158
sg159
g20
(g24
S'\x0e\x00\x00\x00\x00\x00\xf8?'
p338
tp339
Rp340
sssI7
(dp341
I1
(dp342
g16
g158
sg159
g20
(g24
S' \x9a\x99\x99\x99\x99\xb9?'
p343
tp344
Rp345
ssI2
(dp346
g16
g158
sg159
g20
(g24
S'\x14\x00\x00\x00\x00\x00\xe0?'
p347
tp348
Rp349
ssI3
(dp350
g16
g158
sg159
g20
(g24
S'\x14\x00\x00\x00\x00\x00\xe0?'
p351
tp352
Rp353
sssI8
(dp354
I1
(dp355
g16
g158
sg159
g20
(g24
S'\xf8\xff\xff\xff\xff\xff\xef\xbf'
p356
tp357
Rp358
ssI2
(dp359
g16
g158
sg159
g20
(g24
S'\x98\x99\x99\x99\x99\x99\xf9\xbf'
p360
tp361
Rp362
ssI3
(dp363
g16
g158
sg159
g20
(g24
S'\xcc\xcc\xcc\xcc\xcc\xcc\xfc\xbf'
p364
tp365
Rp366
sssI9
(dp367
I8
(dp368
g16
g158
sg159
g20
(g24
S'\xda\xcc\xcc\xcc\xcc\xcc\xf4?'
p369
tp370
Rp371
ssI6
(dp372
g16
g158
sg159
g20
(g24
S'dfffff\xf6\xbf'
p373
tp374
Rp375
ssI7
(dp376
g16
g158
sg159
g20
(g24
S'(33333\xe3\xbf'
p377
tp378
Rp379
sssI10
(dp380
I8
(dp381
g16
g158
sg159
g20
(g24
S'\xdc\xcc\xcc\xcc\xcc\xcc\xfc?'
p382
tp383
Rp384
ssI5
(dp385
g16
g158
sg159
g20
(g24
S'|fffff\xe6?'
p386
tp387
Rp388
ssI6
(dp389
g16
g158
sg159
g20
(g24
S'\x00\x00\x00\x00\x00\x00\xe0<'
p390
tp391
Rp392
sssI11
(dp393
I8
(dp394
g16
g158
sg159
g20
(g24
S'\x96\x99\x99\x99\x99\x99\xf1\xbf'
p395
tp396
Rp397
ssI5
(dp398
g16
g158
sg159
g20
(g24
S'\xf8\xff\xff\xff\xff\xff\xef\xbf'
p399
tp400
Rp401
ssI6
(dp402
g16
g158
sg159
g20
(g24
S'\xa8\x99\x99\x99\x99\x99\xf9?'
p403
tp404
Rp405
ssI7
(dp406
g16
g158
sg159
g20
(g24
S'\x0c\x00\x00\x00\x00\x00\xf0?'
p407
tp408
Rp409
ssssg253
(dp410
I1
(dp411
I8
g355
sI5
g320
sI7
g342
ssI2
(dp412
I8
g359
sI5
g324
sI6
g333
sI7
g346
ssI3
(dp413
I8
g363
sI5
g328
sI6
g337
sI7
g350
ssI5
(dp414
I10
g385
sI11
g398
ssI6
(dp415
I9
g372
sI10
g389
sI11
g402
ssI7
(dp416
I9
g376
sI11
g406
ssI8
(dp417
I9
g368
sI10
g381
sI11
g394
ssI9
(dp418
sI10
(dp419
sI11
(dp420
ssg265
g410
sg266
g10
sbaNaNaNag3
(g4
g5
Ntp421
Rp422
(dp423
g9
g10
sg11
g10
sg12
g10
sg13
(dp424
I1
(dp425
g16
I01
sg17
g18
sg19
g20
(g24
S'\x00\x00\x00\x00\x00\x00\x00\x00'
p426
tp427
Rp428
sg30
g36
ssI2
(dp429
g16
I01
sg17
g18
sg19
g20
(g24
S'\x00\x00\x00\x00\x00\x00\x00\x00'
p430
tp431
Rp432
sg30
g51
ssI3
(dp433
g16
I01
sg17
g18
sg19
g20
(g24
S'\x00\x00\x00\x00\x00\x00\x00\x00'
p434
tp435
Rp436
sg30
g61
ssI5
(dp437
g16
I01
sg17
g66
sg19
g20
(g24
S'\xe4\xcc\xcc\xcc\xcc\xcc\xec?'
p438
tp439
Rp440
sg30
g72
ssI6
(dp441
g16
I01
sg17
g66
sg19
g20
(g24
S'\x00\x00\x00\x00\x00\x00\x00\xc0'
p442
tp443
Rp444
sg30
g82
ssI7
(dp445
g16
I01
sg17
g66
sg19
g20
(g24
S'\\fffff\xe6\xbf'
p446
tp447
Rp448
sg30
g92
ssI8
(dp449
g16
I01
sg17
g66
sg19
g20
(g24
S'\xdc\xcc\xcc\xcc\xcc\xcc\xfc?'
p450
tp451
Rp452
sg30
g102
ssI9
(dp453
g16
I01
sg17
g66
sg19
g20
(g24
S'H33333\xe3?'
p454
tp455
Rp456
sg30
g112
ssI10
(dp457
g16
I01
sg17
g66
sg19
g20
(g24
S' \x99\x99\x99\x99\x99\xb9\xbf'
p458
tp459
Rp460
sg30
g122
ssI11
(dp461
g16
I01
sg17
g66
sg19
g20
(g24
S'\xcc\xcc\xcc\xcc\xcc\xcc\xfc\xbf'
p462
tp463
Rp464
sg30
g132
sssg136
(dp465
sg138
g3
(g139
g5
Ntp466
Rp467
(dp468
g143
g424
sbsg144
(dp469
I1
(dp470
sI2
(dp471
sI3
(dp472
sI5
(dp473
I1
(dp474
g16
g158
sg159
g20
(g24
S'\xe4\xcc\xcc\xcc\xcc\xcc\xec?'
p475
tp476
Rp477
ssI3
(dp478
g16
g158
sg159
g20
(g24
S'\xda\xcc\xcc\xcc\xcc\xcc\xf4?'
p479
tp480
Rp481
sssI6
(dp482
I2
(dp483
g16
g158
sg159
g20
(g24
S'@33333\xf3?'
p484
tp485
Rp486
ssI3
(dp487
g16
g158
sg159
g20
(g24
S'(33333\xe3\xbf'
p488
tp489
Rp490
sssI7
(dp491
I1
(dp492
g16
g158
sg159
g20
(g24
S'|fffff\xe6?'
p493
tp494
Rp495
ssI2
(dp496
g16
g158
sg159
g20
(g24
S'vfffff\xfe?'
p497
tp498
Rp499
ssI3
(dp500
g16
g158
sg159
g20
(g24
S'@33333\xf3?'
p501
tp502
Rp503
sssI8
(dp504
I1
(dp505
g16
g158
sg159
g20
(g24
S'ffffff\xfe\xbf'
p506
tp507
Rp508
ssI2
(dp509
g16
g158
sg159
g20
(g24
S'H33333\xe3?'
p510
tp511
Rp512
ssI3
(dp513
g16
g158
sg159
g20
(g24
S'\xdc\xcc\xcc\xcc\xcc\xcc\xfc?'
p514
tp515
Rp516
sssI9
(dp517
I8
(dp518
g16
g158
sg159
g20
(g24
S'\x0c\x00\x00\x00\x00\x00\xf0?'
p519
tp520
Rp521
ssI5
(dp522
g16
g158
sg159
g20
(g24
S'033333\xf3\xbf'
p523
tp524
Rp525
ssI6
(dp526
g16
g158
sg159
g20
(g24
S'B33333\xfb?'
p527
tp528
Rp529
ssI7
(dp530
g16
g158
sg159
g20
(g24
S'\xcc\xcc\xcc\xcc\xcc\xcc\xfc\xbf'
p531
tp532
Rp533
sssI10
(dp534
I8
(dp535
g16
g158
sg159
g20
(g24
S'\x90\x99\x99\x99\x99\x99\xe9\xbf'
p536
tp537
Rp538
ssI5
(dp539
g16
g158
sg159
g20
(g24
S'\xc4\xcc\xcc\xcc\xcc\xcc\xec\xbf'
p540
tp541
Rp542
ssI6
(dp543
g16
g158
sg159
g20
(g24
S'\\fffff\xe6\xbf'
p544
tp545
Rp546
ssI7
(dp547
g16
g158
sg159
g20
(g24
S'@33333\xf3?'
p548
tp549
Rp550
sssI11
(dp551
I8
(dp552
g16
g158
sg159
g20
(g24
S'\xfe\xff\xff\xff\xff\xff\xf7\xbf'
p553
tp554
Rp555
ssI5
(dp556
g16
g158
sg159
g20
(g24
S'\xda\xcc\xcc\xcc\xcc\xcc\xf4?'
p557
tp558
Rp559
ssI6
(dp560
g16
g158
sg159
g20
(g24
S'\x08\x00\x00\x00\x00\x00\x00@'
p561
tp562
Rp563
ssssg253
(dp564
I1
(dp565
I8
g505
sI5
g474
sI7
g492
ssI2
(dp566
I8
g509
sI6
g483
sI7
g496
ssI3
(dp567
I8
g513
sI5
g478
sI6
g487
sI7
g500
ssI5
(dp568
I9
g522
sI10
g539
sI11
g556
ssI6
(dp569
I9
g526
sI10
g543
sI11
g560
ssI7
(dp570
I9
g530
sI10
g547
ssI8
(dp571
I9
g518
sI10
g535
sI11
g552
ssI9
(dp572
sI10
(dp573
sI11
(dp574
ssg265
g564
sg266
g10
sbaNaNaa(lp575
NaNaNaNaNaNaNaNaNaNaa(lp576
NaNaNaNaNaNaNaNaNaNaa(lp577
NaNaNaNaNaNaNaNaNaNaa(lp578
NaNaNaNaNaNaNaNaNaNaa(lp579
NaNaNaNaNaNaNaNaNaNaa(lp580
NaNaNaNaNaNaNaNaNaNaa(lp581
NaNaNaNaNaNaNaNaNaNaa(lp582
NaNaNaNaNaNaNaNaNaNaa.