(lp0
(lp1
NaNaNaNaNaNaNaNaNaNaa(lp2
Naccopy_reg
_reconstructor
p3
(cnetworkx.classes.digraph
DiGraph
p4
c__builtin__
object
p5
Ntp6
Rp7
(dp8
S'adjlist_inner_dict_factory'
p9
c__builtin__
dict
p10
sS'node_dict_factory'
p11
g10
sS'edge_attr_dict_factory'
p12
g10
sS'_node'
p13
(dp14
I1
(dp15
S'active'
p16
I01
sS'ActFunc'
p17
cNeuralNet.activations
noFunc
p18
sS'bias'
p19
cnumpy.core.multiarray
scalar
p20
(cnumpy
dtype
p21
(S'f8'
p22
I0
I1
tp23
Rp24
(I3
S'<'
p25
NNNI-1
I-1
I0
tp26
bS'\x00\x00\x00\x00\x00\x00\x00\x00'
p27
tp28
Rp29
sS'pos'
p30
cnumpy.core.multiarray
_reconstruct
p31
(cnumpy
ndarray
p32
(I0
tp33
S'b'
p34
tp35
Rp36
(I1
(I2
tp37
g21
(S'i8'
p38
I0
I1
tp39
Rp40
(I3
S'<'
p41
NNNI-1
I-1
I0
tp42
bI00
S'\x00\x00\x00\x00\x00\x00\x00\x00\x00\x00\x00\x00\x00\x00\x00\x00'
p43
tp44
bssI2
(dp45
g16
I01
sg17
g18
sg19
g20
(g24
S'\x00\x00\x00\x00\x00\x00\x00\x00'
p46
tp47
Rp48
sg30
g31
(g32
(I0
tp49
g34
tp50
Rp51
(I1
(I2
tp52
g40
I00
S'\x01\x00\x00\x00\x00\x00\x00\x00\x00\x00\x00\x00\x00\x00\x00\x00'
p53
tp54
bssI3
(dp55
g16
I01
sg17
g18
sg19
g20
(g24
S'\x00\x00\x00\x00\x00\x00\x00\x00'
p56
tp57
Rp58
sg30
g31
(g32
(I0
tp59
g34
tp60
Rp61
(I1
(I2
tp62
g40
I00
S'\x02\x00\x00\x00\x00\x00\x00\x00\x00\x00\x00\x00\x00\x00\x00\x00'
p63
tp64
bssI5
(dp65
g16
I01
sg17
cNeuralNet.activations
tanh
p66
sg19
g20
(g24
S'233333\xfb\xbf'
p67
tp68
Rp69
sg30
g31
(g32
(I0
tp70
g34
tp71
Rp72
(I1
(I2
tp73
g40
I00
S'\x00\x00\x00\x00\x00\x00\x00\x00\x01\x00\x00\x00\x00\x00\x00\x00'
p74
tp75
bssI6
(dp76
g16
I01
sg17
g66
sg19
g20
(g24
S'\xa8\x99\x99\x99\x99\x99\xf9?'
p77
tp78
Rp79
sg30
g31
(g32
(I0
tp80
g34
tp81
Rp82
(I1
(I2
tp83
g40
I00
S'\x01\x00\x00\x00\x00\x00\x00\x00\x01\x00\x00\x00\x00\x00\x00\x00'
p84
tp85
bssI7
(dp86
g16
I01
sg17
g66
sg19
g20
(g24
S'`\x99\x99\x99\x99\x99\xc9\xbf'
p87
tp88
Rp89
sg30
g31
(g32
(I0
tp90
g34
tp91
Rp92
(I1
(I2
tp93
g40
I00
S'\x02\x00\x00\x00\x00\x00\x00\x00\x01\x00\x00\x00\x00\x00\x00\x00'
p94
tp95
bssI8
(dp96
g16
I01
sg17
g66
sg19
g20
(g24
S'\x08\x00\x00\x00\x00\x00\x00@'
p97
tp98
Rp99
sg30
g31
(g32
(I0
tp100
g34
tp101
Rp102
(I1
(I2
tp103
g40
I00
S'\x03\x00\x00\x00\x00\x00\x00\x00\x01\x00\x00\x00\x00\x00\x00\x00'
p104
tp105
bssI9
(dp106
g16
I01
sg17
g66
sg19
g20
(g24
S'(33333\xe3\xbf'
p107
tp108
Rp109
sg30
g31
(g32
(I0
tp110
g34
tp111
Rp112
(I1
(I2
tp113
g40
I00
S'\x00\x00\x00\x00\x00\x00\x00\x00\x02\x00\x00\x00\x00\x00\x00\x00'
p114
tp115
bssI10
(dp116
g16
I01
sg17
g66
sg19
g20
(g24
S'(33333\xe3\xbf'
p117
tp118
Rp119
sg30
g31
(g32
(I0
tp120
g34
tp121
Rp122
(I1
(I2
tp123
g40
I00
S'\x01\x00\x00\x00\x00\x00\x00\x00\x02\x00\x00\x00\x00\x00\x00\x00'
p124
tp125
bssI11
(dp126
g16
I01
sg17
g66
sg19
g20
(g24
S'\xa8\x99\x99\x99\x99\x99\xf9?'
p127
tp128
Rp129
sg30
g31
(g32
(I0
tp130
g34
tp131
Rp132
(I1
(I2
tp133
g40
I00
S'\x02\x00\x00\x00\x00\x00\x00\x00\x02\x00\x00\x00\x00\x00\x00\x00'
p134
tp135
bsssS'graph'
p136
(dp137
sS'nodes'
p138
g3
(cnetworkx.classes.reportviews
NodeView
p139
g5
Ntp140
Rp141
(dp142
S'_nodes'
p143
g14
sbsS'_pred'
p144
(dp145
I1
(dp146
sI2
(dp147
sI3
(dp148
sI5
(dp149
I1
(dp150
g16
g20
(g21
(S'b1'
p151
I0
I1
tp152
Rp153
(I3
S'|'
p154
NNNI-1
I-1
I0
tp155
bS'\x01'
p156
tp157
Rp158
sS'weight'
p159
g20
(g24
S'\x80\x99\x99\x99\x99\x99\xd9\xbf'
p160
tp161
Rp162
ssI2
(dp163
g16
g158
sg159
g20
(g24
S'(33333\xe3\xbf'
p164
tp165
Rp166
ssI3
(dp167
g16
g158
sg159
g20
(g24
S'\\fffff\xe6\xbf'
p168
tp169
Rp170
sssI6
(dp171
I1
(dp172
g16
g158
sg159
g20
(g24
S'033333\xf3\xbf'
p173
tp174
Rp175
ssI2
(dp176
g16
g158
sg159
g20
(g24
S'X33333\xd3?'
p177
tp178
Rp179
sssI7
(dp180
I1
(dp181
g16
g158
sg159
g20
(g24
S'\xdc\xcc\xcc\xcc\xcc\xcc\xfc?'
p182
tp183
Rp184
ssI3
(dp185
g16
g158
sg159
g20
(g24
S'\xca\xcc\xcc\xcc\xcc\xcc\xf4\xbf'
p186
tp187
Rp188
sssI8
(dp189
I1
(dp190
g16
g158
sg159
g20
(g24
S'(33333\xe3\xbf'
p191
tp192
Rp193
ssI3
(dp194
g16
g158
sg159
g20
(g24
S'H33333\xe3?'
p195
tp196
Rp197
sssI9
(dp198
I8
(dp199
g16
g158
sg159
g20
(g24
S'233333\xfb\xbf'
p200
tp201
Rp202
ssI5
(dp203
g16
g158
sg159
g20
(g24
S'\xcc\xcc\xcc\xcc\xcc\xcc\xfc\xbf'
p204
tp205
Rp206
ssI6
(dp207
g16
g158
sg159
g20
(g24
S' \x9a\x99\x99\x99\x99\xb9?'
p208
tp209
Rp210
ssI7
(dp211
g16
g158
sg159
g20
(g24
S' \x9a\x99\x99\x99\x99\xb9?'
p212
tp213
Rp214
sssI10
(dp215
I8
(dp216
g16
g158
sg159
g20
(g24
S'\x96\x99\x99\x99\x99\x99\xf1\xbf'
p217
tp218
Rp219
ssI5
(dp220
g16
g158
sg159
g20
(g24
S'\xc0\x99\x99\x99\x99\x99\xd9?'
p221
tp222
Rp223
ssI6
(dp224
g16
g158
sg159
g20
(g24
S'\xe0\x99\x99\x99\x99\x99\xc9?'
p225
tp226
Rp227
sssI11
(dp228
I8
(dp229
g16
g158
sg159
g20
(g24
S' \x99\x99\x99\x99\x99\xb9\xbf'
p230
tp231
Rp232
ssI5
(dp233
g16
g158
sg159
g20
(g24
S'\xcc\xcc\xcc\xcc\xcc\xcc\xfc\xbf'
p234
tp235
Rp236
ssI6
(dp237
g16
g158
sg159
g20
(g24
S'\xca\xcc\xcc\xcc\xcc\xcc\xf4\xbf'
p238
tp239
Rp240
ssI7
(dp241
g16
g158
sg159
g20
(g24
S'@33333\xf3?'
p242
tp243
Rp244
ssssS'_succ'
p245
(dp246
I1
(dp247
I8
g190
sI5
g150
sI6
g172
sI7
g181
ssI2
(dp248
I5
g163
sI6
g176
ssI3
(dp249
I8
g194
sI5
g167
sI7
g185
ssI5
(dp250
I9
g203
sI10
g220
sI11
g233
ssI6
(dp251
I9
g207
sI10
g224
sI11
g237
ssI7
(dp252
I9
g211
sI11
g241
ssI8
(dp253
I9
g199
sI10
g216
sI11
g229
ssI9
(dp254
sI10
(dp255
sI11
(dp256
ssS'_adj'
p257
g246
sS'adjlist_outer_dict_factory'
p258
g10
sbag3
(g4
g5
Ntp259
Rp260
(dp261
g9
g10
sg11
g10
sg12
g10
sg13
(dp262
I1
(dp263
g16
I01
sg17
g18
sg19
g20
(g24
S'\x00\x00\x00\x00\x00\x00\x00\x00'
p264
tp265
Rp266
sg30
g36
ssI2
(dp267
g16
I01
sg17
g18
sg19
g20
(g24
S'\x00\x00\x00\x00\x00\x00\x00\x00'
p268
tp269
Rp270
sg30
g51
ssI3
(dp271
g16
I01
sg17
g18
sg19
g20
(g24
S'\x00\x00\x00\x00\x00\x00\x00\x00'
p272
tp273
Rp274
sg30
g61
ssI5
(dp275
g16
I01
sg17
g66
sg19
g20
(g24
S'\x00\x00\x00\x00\x00\x00\x00\xc0'
p276
tp277
Rp278
sg30
g72
ssI6
(dp279
g16
I01
sg17
g66
sg19
g20
(g24
S'\xe0\x99\x99\x99\x99\x99\xc9?'
p280
tp281
Rp282
sg30
g82
ssI7
(dp283
g16
I01
sg17
g66
sg19
g20
(g24
S'ffffff\xfe\xbf'
p284
tp285
Rp286
sg30
g92
ssI8
(dp287
g16
I01
sg17
g66
sg19
g20
(g24
S'\\fffff\xe6\xbf'
p288
tp289
Rp290
sg30
g102
ssI9
(dp291
g16
I01
sg17
g66
sg19
g20
(g24
S'\x0c\x00\x00\x00\x00\x00\xf0?'
p292
tp293
Rp294
sg30
g112
ssI10
(dp295
g16
I01
sg17
g66
sg19
g20
(g24
S' \x9a\x99\x99\x99\x99\xb9?'
p296
tp297
Rp298
sg30
g122
ssI11
(dp299
g16
I01
sg17
g66
sg19
g20
(g24
S'X33333\xd3?'
p300
tp301
Rp302
sg30
g132
sssg136
(dp303
sg138
g3
(g139
g5
Ntp304
Rp305
(dp306
g143
g262
sbsg144
(dp307
I1
(dp308
sI2
(dp309
sI3
(dp310
sI5
(dp311
I1
(dp312
g16
g158
sg159
g20
(g24
S'X33333\xd3?'
p313
tp314
Rp315
ssI2
(dp316
g16
g158
sg159
g20
(g24
S'X33333\xd3?'
p317
tp318
Rp319
sssI6
(dp320
I1
(dp321
g16
g158
sg159
g20
(g24
S'\xc4\xcc\xcc\xcc\xcc\xcc\xec\xbf'
p322
tp323
Rp324
ssI2
(dp325
g16
g158
sg159
g20
(g24
S'\xcc\xcc\xcc\xcc\xcc\xcc\xfc\xbf'
p326
tp327
Rp328
ssI3
(dp329
g16
g158
sg159
g20
(g24
S'\xe4\xcc\xcc\xcc\xcc\xcc\xec?'
p330
tp331
Rp332
sssI7
(dp333
I2
(dp334
g16
g158
sg159
g20
(g24
S'`\x99\x99\x99\x99\x99\xc9\xbf'
p335
tp336
Rp337
ssI3
(dp338
g16
g158
sg159
g20
(g24
S'ffffff\xfe\xbf'
p339
tp340
Rp341
sssI8
(dp342
I2
(dp343
g16
g158
sg159
g20
(g24
S'dfffff\xf6\xbf'
p344
tp345
Rp346
ssI3
(dp347
g16
g158
sg159
g20
(g24
S'\xe4\xcc\xcc\xcc\xcc\xcc\xec?'
p348
tp349
Rp350
sssI9
(dp351
I8
(dp352
g16
g158
sg159
g20
(g24
S'\x0e\x00\x00\x00\x00\x00\xf8?'
p353
tp354
Rp355
ssI5
(dp356
g16
g158
sg159
g20
(g24
S'\xe0\x99\x99\x99\x99\x99\xc9?'
p357
tp358
Rp359
ssI6
(dp360
g16
g158
sg159
g20
(g24
S' \x9a\x99\x99\x99\x99\xb9?'
p361
tp362
Rp363
ssI7
(dp364
g16
g158
sg159
g20
(g24
S'\x96\x99\x99\x99\x99\x99\xf1\xbf'
p365
tp366
Rp367
sssI10
(dp368
I8
(dp369
g16
g158
sg159
g20
(g24
S'233333\xfb\xbf'
p370
tp371
Rp372
ssI5
(dp373
g16
g158
sg159
g20
(g24
S'\x96\x99\x99\x99\x99\x99\xf1\xbf'
p374
tp375
Rp376
ssI6
(dp377
g16
g158
sg159
g20
(g24
S'\xe4\xcc\xcc\xcc\xcc\xcc\xec?'
p378
tp379
Rp380
sssI11
(dp381
I8
(dp382
g16
g158
sg159
g20
(g24
S'233333\xfb\xbf'
p383
tp384
Rp385
ssI5
(dp386
g16
g158
sg159
g20
(g24
S'\x0c\x00\x00\x00\x00\x00\xf0?'
p387
tp388
Rp389
ssI6
(dp390
g16
g158
sg159
g20
(g24
S'\x80\x99\x99\x99\x99\x99\xd9\xbf'
p391
tp392
Rp393
ssssg245
(dp394
I1
(dp395
I5
g312
sI6
g321
ssI2
(dp396
I8
g343
sI5
g316
sI6
g325
sI7
g334
ssI3
(dp397
I8
g347
sI6
g329
sI7
g338
ssI5
(dp398
I9
g356
sI10
g373
sI11
g386
ssI6
(dp399
I9
g360
sI10
g377
sI11
g390
ssI7
(dp400
I9
g364
ssI8
(dp401
I9
g352
sI10
g369
sI11
g382
ssI9
(dp402
sI10
(dp403
sI11
(dp404
ssg257
g394
sg258
g10
sbag3
(g4
g5
Ntp405
Rp406
(dp407
g9
g10
sg11
g10
sg12
g10
sg13
(dp408
I1
(dp409
g16
I01
sg17
g18
sg19
g20
(g24
S'\x00\x00\x00\x00\x00\x00\x00\x00'
p410
tp411
Rp412
sg30
g36
ssI2
(dp413
g16
I01
sg17
g18
sg19
g20
(g24
S'\x00\x00\x00\x00\x00\x00\x00\x00'
p414
tp415
Rp416
sg30
g51
ssI3
(dp417
g16
I01
sg17
g18
sg19
g20
(g24
S'\x00\x00\x00\x00\x00\x00\x00\x00'
p418
tp419
Rp420
sg30
g61
ssI5
(dp421
g16
I01
sg17
g66
sg19
g20
(g24
S'\x0c\x00\x00\x00\x00\x00\xf0?'
p422
tp423
Rp424
sg30
g72
ssI6
(dp425
g16
I01
sg17
g66
sg19
g20
(g24
S'\x0e\x00\x00\x00\x00\x00\xf8?'
p426
tp427
Rp428
sg30
g82
ssI7
(dp429
g16
I01
sg17
g66
sg19
g20
(g24
S'tfffff\xf6?'
p430
tp431
Rp432
sg30
g92
ssI8
(dp433
g16
I01
sg17
g66
sg19
g20
(g24
S' \x99\x99\x99\x99\x99\xb9\xbf'
p434
tp435
Rp436
sg30
g102
ssI9
(dp437
g16
I01
sg17
g66
sg19
g20
(g24
S'@33333\xf3?'
p438
tp439
Rp440
sg30
g112
ssI10
(dp441
g16
I01
sg17
g66
sg19
g20
(g24
S'@33333\xf3?'
p442
tp443
Rp444
sg30
g122
ssI11
(dp445
g16
I01
sg17
g66
sg19
g20
(g24
S'\x90\x99\x99\x99\x99\x99\xe9\xbf'
p446
tp447
Rp448
sg30
g132
sssg136
(dp449
sg138
g3
(g139
g5
Ntp450
Rp451
(dp452
g143
g408
sbsg144
(dp453
I1
(dp454
sI2
(dp455
sI3
(dp456
sI5
(dp457
I2
(dp458
g16
g158
sg159
g20
(g24
S'\xdc\xcc\xcc\xcc\xcc\xcc\xfc?'
p459
tp460
Rp461
ssI3
(dp462
g16
g158
sg159
g20
(g24
S'\xda\xcc\xcc\xcc\xcc\xcc\xf4?'
p463
tp464
Rp465
sssI6
(dp466
I1
(dp467
g16
g158
sg159
g20
(g24
S'\xf8\xff\xff\xff\xff\xff\xef\xbf'
p468
tp469
Rp470
ssI2
(dp471
g16
g158
sg159
g20
(g24
S'\xdc\xcc\xcc\xcc\xcc\xcc\xfc?'
p472
tp473
Rp474
ssI3
(dp475
g16
g158
sg159
g20
(g24
S'\xc4\xcc\xcc\xcc\xcc\xcc\xec\xbf'
p476
tp477
Rp478
sssI7
(dp479
I2
(dp480
g16
g158
sg159
g20
(g24
S'\x98\x99\x99\x99\x99\x99\xf9\xbf'
p481
tp482
Rp483
ssI3
(dp484
g16
g158
sg159
g20
(g24
S'|fffff\xe6?'
p485
tp486
Rp487
sssI8
(dp488
I1
(dp489
g16
g158
sg159
g20
(g24
S'\xdc\xcc\xcc\xcc\xcc\xcc\xfc?'
p490
tp491
Rp492
ssI2
(dp493
g16
g158
sg159
g20
(g24
S'\xe0\x99\x99\x99\x99\x99\xc9?'
p494
tp495
Rp496
ssI3
(dp497
g16
g158
sg159
g20
(g24
S'tfffff\xf6?'
p498
tp499
Rp500
sssI9
(dp501
I8
(dp502
g16
g158
sg159
g20
(g24
S'`\x99\x99\x99\x99\x99\xc9\xbf'
p503
tp504
Rp505
ssI5
(dp506
g16
g158
sg159
g20
(g24
S' \x99\x99\x99\x99\x99\xb9\xbf'
p507
tp508
Rp509
ssI6
(dp510
g16
g158
sg159
g20
(g24
S'vfffff\xfe?'
p511
tp512
Rp513
ssI7
(dp514
g16
g158
sg159
g20
(g24
S'H33333\xe3?'
p515
tp516
Rp517
sssI10
(dp518
I8
(dp519
g16
g158
sg159
g20
(g24
S'233333\xfb\xbf'
p520
tp521
Rp522
ssI5
(dp523
g16
g158
sg159
g20
(g24
S'\xe0\x99\x99\x99\x99\x99\xc9?'
p524
tp525
Rp526
ssI6
(dp527
g16
g158
sg159
g20
(g24
S'\xdc\xcc\xcc\xcc\xcc\xcc\xfc?'
p528
tp529
Rp530
ssI7
(dp531
g16
g158
sg159
g20
(g24
S'\x00\x00\x00\x00\x00\x00\xe0<'
p532
tp533
Rp534
sssI11
(dp535
I8
(dp536
g16
g158
sg159
g20
(g24
S'\xdc\xcc\xcc\xcc\xcc\xcc\xfc?'
p537
tp538
Rp539
ssI5
(dp540
g16
g158
sg159
g20
(g24
S'\x1833333\xd3\xbf'
p541
tp542
Rp543
ssI7
(dp544
g16
g158
sg159
g20
(g24
S'033333\xf3\xbf'
p545
tp546
Rp547
ssssg245
(dp548
I1
(dp549
I8
g489
sI6
g467
ssI2
(dp550
I8
g493
sI5
g458
sI6
g471
sI7
g480
ssI3
(dp551
I8
g497
sI5
g462
sI6
g475
sI7
g484
ssI5
(dp552
I9
g506
sI10
g523
sI11
g540
ssI6
(dp553
I9
g510
sI10
g527
ssI7
(dp554
I9
g514
sI10
g531
sI11
g544
ssI8
(dp555
I9
g502
sI10
g519
sI11
g536
ssI9
(dp556
sI10
(dp557
sI11
(dp558
ssg257
g548
sg258
g10
sbag3
(g4
g5
Ntp559
Rp560
(dp561
g9
g10
sg11
g10
sg12
g10
sg13
(dp562
I1
(dp563
g16
I01
sg17
g18
sg19
g20
(g24
S'\x00\x00\x00\x00\x00\x00\x00\x00'
p564
tp565
Rp566
sg30
g36
ssI2
(dp567
g16
I01
sg17
g18
sg19
g20
(g24
S'\x00\x00\x00\x00\x00\x00\x00\x00'
p568
tp569
Rp570
sg30
g51
ssI3
(dp571
g16
I01
sg17
g18
sg19
g20
(g24
S'\x00\x00\x00\x00\x00\x00\x00\x00'
p572
tp573
Rp574
sg30
g61
ssI5
(dp575
g16
I01
sg17
g66
sg19
g20
(g24
S'\x0c\x00\x00\x00\x00\x00\xf0?'
p576
tp577
Rp578
sg30
g72
ssI6
(dp579
g16
I01
sg17
g66
sg19
g20
(g24
S'@33333\xf3?'
p580
tp581
Rp582
sg30
g82
ssI7
(dp583
g16
I01
sg17
g66
sg19
g20
(g24
S'|fffff\xe6?'
p584
tp585
Rp586
sg30
g92
ssI8
(dp587
g16
I01
sg17
g66
sg19
g20
(g24
S'H33333\xe3?'
p588
tp589
Rp590
sg30
g102
ssI9
(dp591
g16
I01
sg17
g66
sg19
g20
(g24
S'\\fffff\xe6\xbf'
p592
tp593
Rp594
sg30
g112
ssI10
(dp595
g16
I01
sg17
g66
sg19
g20
(g24
S'`\x99\x99\x99\x99\x99\xc9\xbf'
p596
tp597
Rp598
sg30
g122
ssI11
(dp599
g16
I01
sg17
g66
sg19
g20
(g24
S'\x00\x00\x00\x00\x00\x00\x00\xc0'
p600
tp601
Rp602
sg30
g132
sssg136
(dp603
sg138
g3
(g139
g5
Ntp604
Rp605
(dp606
g143
g562
sbsg144
(dp607
I1
(dp608
sI2
(dp609
sI3
(dp610
sI5
(dp611
I1
(dp612
g16
g158
sg159
g20
(g24
S'\x80\x99\x99\x99\x99\x99\xd9\xbf'
p613
tp614
Rp615
ssI3
(dp616
g16
g158
sg159
g20
(g24
S'\xca\xcc\xcc\xcc\xcc\xcc\xf4\xbf'
p617
tp618
Rp619
sssI6
(dp620
I1
(dp621
g16
g158
sg159
g20
(g24
S'(33333\xe3\xbf'
p622
tp623
Rp624
ssI2
(dp625
g16
g158
sg159
g20
(g24
S'\xa8\x99\x99\x99\x99\x99\xf9?'
p626
tp627
Rp628
ssI3
(dp629
g16
g158
sg159
g20
(g24
S'\xcc\xcc\xcc\xcc\xcc\xcc\xfc\xbf'
p630
tp631
Rp632
sssI7
(dp633
I1
(dp634
g16
g158
sg159
g20
(g24
S'(33333\xe3\xbf'
p635
tp636
Rp637
ssI3
(dp638
g16
g158
sg159
g20
(g24
S'\xa8\x99\x99\x99\x99\x99\xf9?'
p639
tp640
Rp641
sssI8
(dp642
I1
(dp643
g16
g158
sg159
g20
(g24
S'\x0c\x00\x00\x00\x00\x00\xf0?'
p644
tp645
Rp646
ssI2
(dp647
g16
g158
sg159
g20
(g24
S'\x0c\x00\x00\x00\x00\x00\xf0?'
p648
tp649
Rp650
ssI3
(dp651
g16
g158
sg159
g20
(g24
S'\\fffff\xe6\xbf'
p652
tp653
Rp654
sssI9
(dp655
I8
(dp656
g16
g158
sg159
g20
(g24
S'\\fffff\xe6\xbf'
p657
tp658
Rp659
ssI5
(dp660
g16
g158
sg159
g20
(g24
S'\xcc\xcc\xcc\xcc\xcc\xcc\xfc\xbf'
p661
tp662
Rp663
ssI6
(dp664
g16
g158
sg159
g20
(g24
S'(33333\xe3\xbf'
p665
tp666
Rp667
ssI7
(dp668
g16
g158
sg159
g20
(g24
S'ffffff\xfe\xbf'
p669
tp670
Rp671
sssI10
(dp672
I8
(dp673
g16
g158
sg159
g20
(g24
S'\xca\xcc\xcc\xcc\xcc\xcc\xf4\xbf'
p674
tp675
Rp676
ssI5
(dp677
g16
g158
sg159
g20
(g24
S'`\x99\x99\x99\x99\x99\xc9\xbf'
p678
tp679
Rp680
ssI6
(dp681
g16
g158
sg159
g20
(g24
S'(33333\xe3\xbf'
p682
tp683
Rp684
ssI7
(dp685
g16
g158
sg159
g20
(g24
S'\xda\xcc\xcc\xcc\xcc\xcc\xf4?'
p686
tp687
Rp688
sssI11
(dp689
I8
(dp690
g16
g158
sg159
g20
(g24
S'\xa6\x99\x99\x99\x99\x99\xf1?'
p691
tp692
Rp693
ssI5
(dp694
g16
g158
sg159
g20
(g24
S'ffffff\xfe\xbf'
p695
tp696
Rp697
ssI6
(dp698
g16
g158
sg159
g20
(g24
S'\\fffff\xe6\xbf'
p699
tp700
Rp701
ssssg245
(dp702
I1
(dp703
I8
g643
sI5
g612
sI6
g621
sI7
g634
ssI2
(dp704
I8
g647
sI6
g625
ssI3
(dp705
I8
g651
sI5
g616
sI6
g629
sI7
g638
ssI5
(dp706
I9
g660
sI10
g677
sI11
g694
ssI6
(dp707
I9
g664
sI10
g681
sI11
g698
ssI7
(dp708
I9
g668
sI10
g685
ssI8
(dp709
I9
g656
sI10
g673
sI11
g690
ssI9
(dp710
sI10
(dp711
sI11
(dp712
ssg257
g702
sg258
g10
sbag3
(g4
g5
Ntp713
Rp714
(dp715
g9
g10
sg11
g10
sg12
g10
sg13
(dp716
I1
(dp717
g16
I01
sg17
g18
sg19
g20
(g24
S'\x00\x00\x00\x00\x00\x00\x00\x00'
p718
tp719
Rp720
sg30
g36
ssI2
(dp721
g16
I01
sg17
g18
sg19
g20
(g24
S'\x00\x00\x00\x00\x00\x00\x00\x00'
p722
tp723
Rp724
sg30
g51
ssI3
(dp725
g16
I01
sg17
g18
sg19
g20
(g24
S'\x00\x00\x00\x00\x00\x00\x00\x00'
p726
tp727
Rp728
sg30
g61
ssI5
(dp729
g16
I01
sg17
g66
sg19
g20
(g24
S'\x14\x00\x00\x00\x00\x00\xe0?'
p730
tp731
Rp732
sg30
g72
ssI6
(dp733
g16
I01
sg17
g66
sg19
g20
(g24
S'\xe0\x99\x99\x99\x99\x99\xc9?'
p734
tp735
Rp736
sg30
g82
ssI7
(dp737
g16
I01
sg17
g66
sg19
g20
(g24
S'\x98\x99\x99\x99\x99\x99\xf9\xbf'
p738
tp739
Rp740
sg30
g92
ssI8
(dp741
g16
I01
sg17
g66
sg19
g20
(g24
S'@33333\xf3?'
p742
tp743
Rp744
sg30
g102
ssI9
(dp745
g16
I01
sg17
g66
sg19
g20
(g24
S'dfffff\xf6\xbf'
p746
tp747
Rp748
sg30
g112
ssI10
(dp749
g16
I01
sg17
g66
sg19
g20
(g24
S'tfffff\xf6?'
p750
tp751
Rp752
sg30
g122
ssI11
(dp753
g16
I01
sg17
g66
sg19
g20
(g24
S'X33333\xd3?'
p754
tp755
Rp756
sg30
g132
sssg136
(dp757
sg138
g3
(g139
g5
Ntp758
Rp759
(dp760
g143
g716
sbsg144
(dp761
I1
(dp762
sI2
(dp763
sI3
(dp764
sI5
(dp765
I1
(dp766
g16
g158
sg159
g20
(g24
S'\xa6\x99\x99\x99\x99\x99\xf1?'
p767
tp768
Rp769
ssI2
(dp770
g16
g158
sg159
g20
(g24
S'233333\xfb\xbf'
p771
tp772
Rp773
ssI3
(dp774
g16
g158
sg159
g20
(g24
S'\xa6\x99\x99\x99\x99\x99\xf1?'
p775
tp776
Rp777
sssI6
(dp778
I1
(dp779
g16
g158
sg159
g20
(g24
S'@33333\xf3?'
p780
tp781
Rp782
ssI2
(dp783
g16
g158
sg159
g20
(g24
S'tfffff\xf6?'
p784
tp785
Rp786
ssI3
(dp787
g16
g158
sg159
g20
(g24
S'H33333\xe3?'
p788
tp789
Rp790
sssI7
(dp791
I1
(dp792
g16
g158
sg159
g20
(g24
S'\xf8\xff\xff\xff\xff\xff\xef\xbf'
p793
tp794
Rp795
ssI2
(dp796
g16
g158
sg159
g20
(g24
S'\x0c\x00\x00\x00\x00\x00\xf0?'
p797
tp798
Rp799
ssI3
(dp800
g16
g158
sg159
g20
(g24
S'033333\xf3\xbf'
p801
tp802
Rp803
sssI8
(dp804
I1
(dp805
g16
g158
sg159
g20
(g24
S'\xca\xcc\xcc\xcc\xcc\xcc\xf4\xbf'
p806
tp807
Rp808
ssI2
(dp809
g16
g158
sg159
g20
(g24
S'\xfe\xff\xff\xff\xff\xff\xf7\xbf'
p810
tp811
Rp812
ssI3
(dp813
g16
g158
sg159
g20
(g24
S'\x00\x00\x00\x00\x00\x00\xe0<'
p814
tp815
Rp816
sssI9
(dp817
I8
(dp818
g16
g158
sg159
g20
(g24
S'\x0e\x00\x00\x00\x00\x00\xf8?'
p819
tp820
Rp821
ssI5
(dp822
g16
g158
sg159
g20
(g24
S'B33333\xfb?'
p823
tp824
Rp825
ssI6
(dp826
g16
g158
sg159
g20
(g24
S' \x9a\x99\x99\x99\x99\xb9?'
p827
tp828
Rp829
ssI7
(dp830
g16
g158
sg159
g20
(g24
S'|fffff\xe6?'
p831
tp832
Rp833
sssI10
(dp834
I8
(dp835
g16
g158
sg159
g20
(g24
S'\x0e\x00\x00\x00\x00\x00\xf8?'
p836
tp837
Rp838
ssI5
(dp839
g16
g158
sg159
g20
(g24
S'|fffff\xe6?'
p840
tp841
Rp842
ssI6
(dp843
g16
g158
sg159
g20
(g24
S'@33333\xf3?'
p844
tp845
Rp846
ssI7
(dp847
g16
g158
sg159
g20
(g24
S'|fffff\xe6?'
p848
tp849
Rp850
sssI11
(dp851
I8
(dp852
g16
g158
sg159
g20
(g24
S'\xa6\x99\x99\x99\x99\x99\xf1?'
p853
tp854
Rp855
ssI5
(dp856
g16
g158
sg159
g20
(g24
S'\x96\x99\x99\x99\x99\x99\xf1\xbf'
p857
tp858
Rp859
ssI6
(dp860
g16
g158
sg159
g20
(g24
S'\xcc\xcc\xcc\xcc\xcc\xcc\xfc\xbf'
p861
tp862
Rp863
ssssg245
(dp864
I1
(dp865
I8
g805
sI5
g766
sI6
g779
sI7
g792
ssI2
(dp866
I8
g809
sI5
g770
sI6
g783
sI7
g796
ssI3
(dp867
I8
g813
sI5
g774
sI6
g787
sI7
g800
ssI5
(dp868
I9
g822
sI10
g839
sI11
g856
ssI6
(dp869
I9
g826
sI10
g843
sI11
g860
ssI7
(dp870
I9
g830
sI10
g847
ssI8
(dp871
I9
g818
sI10
g835
sI11
g852
ssI9
(dp872
sI10
(dp873
sI11
(dp874
ssg257
g864
sg258
g10
sbaNaNaNaNaa(lp875
NaNaNaNaNaNaNaNaNaNaa(lp876
NaNaNaNaNaNaNaNaNaNaa(lp877
NaNaNaNaNaNaNaNaNaNaa(lp878
NaNaNaNaNaNaNaNaNaNaa(lp879
NaNaNaNaNaNaNaNaNaNaa(lp880
NaNaNaNaNaNaNaNaNaNaa(lp881
NaNaNaNaNaNaNaNaNaNaa(lp882
NaNaNaNaNaNaNaNaNaNaa.