(lp0
(lp1
NaNaNaNaNaNaNaNaNaNaa(lp2
ccopy_reg
_reconstructor
p3
(cnetworkx.classes.digraph
DiGraph
p4
c__builtin__
object
p5
Ntp6
Rp7
(dp8
S'adjlist_inner_dict_factory'
p9
c__builtin__
dict
p10
sS'node_dict_factory'
p11
g10
sS'edge_attr_dict_factory'
p12
g10
sS'_node'
p13
(dp14
I1
(dp15
S'active'
p16
I01
sS'ActFunc'
p17
cNeuralNet.activations
noFunc
p18
sS'bias'
p19
cnumpy.core.multiarray
scalar
p20
(cnumpy
dtype
p21
(S'f8'
p22
I0
I1
tp23
Rp24
(I3
S'<'
p25
NNNI-1
I-1
I0
tp26
bS'\x00\x00\x00\x00\x00\x00\x00\x00'
p27
tp28
Rp29
sS'pos'
p30
cnumpy.core.multiarray
_reconstruct
p31
(cnumpy
ndarray
p32
(I0
tp33
S'b'
p34
tp35
Rp36
(I1
(I2
tp37
g21
(S'i8'
p38
I0
I1
tp39
Rp40
(I3
S'<'
p41
NNNI-1
I-1
I0
tp42
bI00
S'\x00\x00\x00\x00\x00\x00\x00\x00\x00\x00\x00\x00\x00\x00\x00\x00'
p43
tp44
bssI2
(dp45
g16
I01
sg17
g18
sg19
g20
(g24
S'\x00\x00\x00\x00\x00\x00\x00\x00'
p46
tp47
Rp48
sg30
g31
(g32
(I0
tp49
g34
tp50
Rp51
(I1
(I2
tp52
g40
I00
S'\x01\x00\x00\x00\x00\x00\x00\x00\x00\x00\x00\x00\x00\x00\x00\x00'
p53
tp54
bssI3
(dp55
g16
I01
sg17
g18
sg19
g20
(g24
S'\x00\x00\x00\x00\x00\x00\x00\x00'
p56
tp57
Rp58
sg30
g31
(g32
(I0
tp59
g34
tp60
Rp61
(I1
(I2
tp62
g40
I00
S'\x02\x00\x00\x00\x00\x00\x00\x00\x00\x00\x00\x00\x00\x00\x00\x00'
p63
tp64
bssI5
(dp65
g16
I01
sg17
cNeuralNet.activations
tanh
p66
sg19
g20
(g24
S'\xf8\xff\xff\xff\xff\xff\xef\xbf'
p67
tp68
Rp69
sg30
g31
(g32
(I0
tp70
g34
tp71
Rp72
(I1
(I2
tp73
g40
I00
S'\x00\x00\x00\x00\x00\x00\x00\x00\x01\x00\x00\x00\x00\x00\x00\x00'
p74
tp75
bssI6
(dp76
g16
I01
sg17
g66
sg19
g20
(g24
S'233333\xfb\xbf'
p77
tp78
Rp79
sg30
g31
(g32
(I0
tp80
g34
tp81
Rp82
(I1
(I2
tp83
g40
I00
S'\x01\x00\x00\x00\x00\x00\x00\x00\x01\x00\x00\x00\x00\x00\x00\x00'
p84
tp85
bssI7
(dp86
g16
I01
sg17
g66
sg19
g20
(g24
S'\xc4\xcc\xcc\xcc\xcc\xcc\xec\xbf'
p87
tp88
Rp89
sg30
g31
(g32
(I0
tp90
g34
tp91
Rp92
(I1
(I2
tp93
g40
I00
S'\x02\x00\x00\x00\x00\x00\x00\x00\x01\x00\x00\x00\x00\x00\x00\x00'
p94
tp95
bssI8
(dp96
g16
I01
sg17
g66
sg19
g20
(g24
S'B33333\xfb?'
p97
tp98
Rp99
sg30
g31
(g32
(I0
tp100
g34
tp101
Rp102
(I1
(I2
tp103
g40
I00
S'\x03\x00\x00\x00\x00\x00\x00\x00\x01\x00\x00\x00\x00\x00\x00\x00'
p104
tp105
bssI9
(dp106
g16
I01
sg17
g66
sg19
g20
(g24
S'\xfe\xff\xff\xff\xff\xff\xf7\xbf'
p107
tp108
Rp109
sg30
g31
(g32
(I0
tp110
g34
tp111
Rp112
(I1
(I2
tp113
g40
I00
S'\x00\x00\x00\x00\x00\x00\x00\x00\x02\x00\x00\x00\x00\x00\x00\x00'
p114
tp115
bssI10
(dp116
g16
I01
sg17
g66
sg19
g20
(g24
S'233333\xfb\xbf'
p117
tp118
Rp119
sg30
g31
(g32
(I0
tp120
g34
tp121
Rp122
(I1
(I2
tp123
g40
I00
S'\x01\x00\x00\x00\x00\x00\x00\x00\x02\x00\x00\x00\x00\x00\x00\x00'
p124
tp125
bssI11
(dp126
g16
I01
sg17
g66
sg19
g20
(g24
S'vfffff\xfe?'
p127
tp128
Rp129
sg30
g31
(g32
(I0
tp130
g34
tp131
Rp132
(I1
(I2
tp133
g40
I00
S'\x02\x00\x00\x00\x00\x00\x00\x00\x02\x00\x00\x00\x00\x00\x00\x00'
p134
tp135
bsssS'graph'
p136
(dp137
sS'nodes'
p138
g3
(cnetworkx.classes.reportviews
NodeView
p139
g5
Ntp140
Rp141
(dp142
S'_nodes'
p143
g14
sbsS'_pred'
p144
(dp145
I1
(dp146
sI2
(dp147
sI3
(dp148
sI5
(dp149
I1
(dp150
g16
g20
(g21
(S'b1'
p151
I0
I1
tp152
Rp153
(I3
S'|'
p154
NNNI-1
I-1
I0
tp155
bS'\x01'
p156
tp157
Rp158
sS'weight'
p159
g20
(g24
S'\xf8\xff\xff\xff\xff\xff\xef\xbf'
p160
tp161
Rp162
ssI2
(dp163
S'active'
p164
I01
sS'weight'
p165
g20
(g24
S'\xe4\xcc\xcc\xcc\xcc\xcc\xec?'
p166
tp167
Rp168
ssI3
(dp169
g16
g158
sg159
g20
(g24
S'\x1833333\xd3\xbf'
p170
tp171
Rp172
sssI6
(dp173
I1
(dp174
S'active'
p175
I01
sS'weight'
p176
g20
(g24
S'\x1833333\xd3\xbf'
p177
tp178
Rp179
ssI2
(dp180
g16
g158
sg159
g20
(g24
S'\xc4\xcc\xcc\xcc\xcc\xcc\xec\xbf'
p181
tp182
Rp183
ssI3
(dp184
g16
g158
sg159
g20
(g24
S'\xdc\xcc\xcc\xcc\xcc\xcc\xfc?'
p185
tp186
Rp187
sssI7
(dp188
I1
(dp189
g16
g158
sg159
g20
(g24
S' \x99\x99\x99\x99\x99\xb9\xbf'
p190
tp191
Rp192
ssI3
(dp193
g16
g158
sg159
g20
(g24
S'\xc0\x99\x99\x99\x99\x99\xd9?'
p194
tp195
Rp196
sssI8
(dp197
I2
(dp198
g16
g158
sg159
g20
(g24
S'\x98\x99\x99\x99\x99\x99\xf9\xbf'
p199
tp200
Rp201
sssI9
(dp202
I8
(dp203
g16
g158
sg159
g20
(g24
S'\xda\xcc\xcc\xcc\xcc\xcc\xf4?'
p204
tp205
Rp206
ssI5
(dp207
S'active'
p208
I01
sS'weight'
p209
g20
(g24
S'H33333\xe3?'
p210
tp211
Rp212
ssI6
(dp213
g16
g158
sg159
g20
(g24
S'\xfe\xff\xff\xff\xff\xff\xf7\xbf'
p214
tp215
Rp216
sssI10
(dp217
I8
(dp218
g16
g158
sg159
g20
(g24
S'vfffff\xfe?'
p219
tp220
Rp221
ssI5
(dp222
g16
g158
sg159
g20
(g24
S'|fffff\xe6?'
p223
tp224
Rp225
ssI6
(dp226
g16
g158
sg159
g20
(g24
S' \x9a\x99\x99\x99\x99\xb9?'
p227
tp228
Rp229
sssI11
(dp230
I8
(dp231
g16
g158
sg159
g20
(g24
S'\x96\x99\x99\x99\x99\x99\xf1\xbf'
p232
tp233
Rp234
ssI5
(dp235
g16
g158
sg159
g20
(g24
S'\x90\x99\x99\x99\x99\x99\xe9\xbf'
p236
tp237
Rp238
ssI6
(dp239
g16
g158
sg159
g20
(g24
S'\xa8\x99\x99\x99\x99\x99\xf9?'
p240
tp241
Rp242
ssssS'_succ'
p243
(dp244
I1
(dp245
I5
g150
sI6
g174
sI7
g189
ssI2
(dp246
I8
g198
sI5
g163
sI6
g180
ssI3
(dp247
I5
g169
sI6
g184
sI7
g193
ssI5
(dp248
I9
g207
sI10
g222
sI11
g235
ssI6
(dp249
I9
g213
sI10
g226
sI11
g239
ssI7
(dp250
sI8
(dp251
I9
g203
sI10
g218
sI11
g231
ssI9
(dp252
sI10
(dp253
sI11
(dp254
ssS'_adj'
p255
g244
sS'adjlist_outer_dict_factory'
p256
g10
sbag3
(g4
g5
Ntp257
Rp258
(dp259
g9
g10
sg11
g10
sg12
g10
sg13
(dp260
I1
(dp261
g16
I01
sg17
g18
sg19
g29
sg30
g36
ssI2
(dp262
g16
I01
sg17
g18
sg19
g48
sg30
g51
ssI3
(dp263
g16
I01
sg17
g18
sg19
g58
sg30
g61
ssI5
(dp264
g16
I01
sg17
g66
sg19
g69
sg30
g72
ssI6
(dp265
g16
I01
sg17
g66
sg19
g20
(g24
S'\xcc\xcc\xcc\xcc\xcc\xcc\xfc\xbf'
p266
tp267
Rp268
sg30
g82
ssI7
(dp269
g16
I01
sg17
g66
sg19
g20
(g24
S'\xf8\xff\xff\xff\xff\xff\xef\xbf'
p270
tp271
Rp272
sg30
g92
ssI8
(dp273
g16
I01
sg17
g66
sg19
g99
sg30
g102
ssI9
(dp274
g16
I01
sg17
g66
sg19
g20
(g24
S'dfffff\xf6\xbf'
p275
tp276
Rp277
sg30
g112
ssI10
(dp278
g16
I01
sg17
g66
sg19
g20
(g24
S'\xcc\xcc\xcc\xcc\xcc\xcc\xfc\xbf'
p279
tp280
Rp281
sg30
g122
ssI11
(dp282
g16
I01
sg17
g66
sg19
g129
sg30
g132
sssg136
(dp283
sg138
g3
(g139
g5
Ntp284
Rp285
(dp286
g143
g260
sbsg144
(dp287
I1
(dp288
sI2
(dp289
sI3
(dp290
sI5
(dp291
I1
(dp292
g16
g158
sg159
g20
(g24
S'033333\xf3\xbf'
p293
tp294
Rp295
ssI2
(dp296
g16
g158
sg159
g20
(g24
S'\x0c\x00\x00\x00\x00\x00\xf0?'
p297
tp298
Rp299
ssI3
(dp300
g16
g158
sg159
g20
(g24
S'\xe8\xff\xff\xff\xff\xff\xdf\xbf'
p301
tp302
Rp303
sssI6
(dp304
I1
(dp305
g175
I01
sg176
g179
ssI2
(dp306
g16
g158
sg159
g183
ssI3
(dp307
g16
g158
sg159
g20
(g24
S'\xa8\x99\x99\x99\x99\x99\xf9?'
p308
tp309
Rp310
sssI7
(dp311
I1
(dp312
g16
g158
sg159
g20
(g24
S'\x00\x00\x00\x00\x00\x00\xe0<'
p313
tp314
Rp315
ssI3
(dp316
g16
g158
sg159
g20
(g24
S'\x14\x00\x00\x00\x00\x00\xe0?'
p317
tp318
Rp319
sssI8
(dp320
I2
(dp321
g16
g158
sg159
g201
sssI9
(dp322
I8
(dp323
g16
g158
sg159
g20
(g24
S'@33333\xf3?'
p324
tp325
Rp326
ssI5
(dp327
g208
I01
sg209
g20
(g24
S'|fffff\xe6?'
p328
tp329
Rp330
ssI6
(dp331
g16
g158
sg159
g216
sssI10
(dp332
I8
(dp333
g16
g158
sg159
g20
(g24
S'vfffff\xfe?'
p334
tp335
Rp336
ssI5
(dp337
g16
g158
sg159
g20
(g24
S'H33333\xe3?'
p338
tp339
Rp340
ssI6
(dp341
g16
g158
sg159
g20
(g24
S'\x00\x00\x00\x00\x00\x00\xe0<'
p342
tp343
Rp344
sssI11
(dp345
I8
(dp346
g16
g158
sg159
g20
(g24
S'\x96\x99\x99\x99\x99\x99\xf1\xbf'
p347
tp348
Rp349
ssI5
(dp350
g16
g158
sg159
g20
(g24
S'\x90\x99\x99\x99\x99\x99\xe9\xbf'
p351
tp352
Rp353
ssI6
(dp354
g16
g158
sg159
g242
ssssg243
(dp355
I1
(dp356
I5
g292
sI6
g305
sI7
g312
ssI2
(dp357
I8
g321
sI5
g296
sI6
g306
ssI3
(dp358
I5
g300
sI6
g307
sI7
g316
ssI5
(dp359
I9
g327
sI10
g337
sI11
g350
ssI6
(dp360
I9
g331
sI10
g341
sI11
g354
ssI7
(dp361
sI8
(dp362
I9
g323
sI10
g333
sI11
g346
ssI9
(dp363
sI10
(dp364
sI11
(dp365
ssg255
g355
sg256
g10
sbag3
(g4
g5
Ntp366
Rp367
(dp368
g9
g10
sg11
g10
sg12
g10
sg13
(dp369
I1
(dp370
g16
I01
sg17
g18
sg19
g20
(g24
S'\x00\x00\x00\x00\x00\x00\x00\x00'
p371
tp372
Rp373
sg30
g36
ssI2
(dp374
g16
I01
sg17
g18
sg19
g20
(g24
S'\x00\x00\x00\x00\x00\x00\x00\x00'
p375
tp376
Rp377
sg30
g51
ssI3
(dp378
g16
I01
sg17
g18
sg19
g20
(g24
S'\x00\x00\x00\x00\x00\x00\x00\x00'
p379
tp380
Rp381
sg30
g61
ssI5
(dp382
g16
I01
sg17
g66
sg19
g20
(g24
S'\x0c\x00\x00\x00\x00\x00\xf0?'
p383
tp384
Rp385
sg30
g72
ssI6
(dp386
g16
I01
sg17
g66
sg19
g20
(g24
S'\x00\x00\x00\x00\x00\x00\x00\xc0'
p387
tp388
Rp389
sg30
g82
ssI7
(dp390
g16
I01
sg17
g66
sg19
g20
(g24
S'\xe8\xff\xff\xff\xff\xff\xdf\xbf'
p391
tp392
Rp393
sg30
g92
ssI8
(dp394
g16
I01
sg17
g66
sg19
g20
(g24
S'\x08\x00\x00\x00\x00\x00\x00@'
p395
tp396
Rp397
sg30
g102
ssI9
(dp398
g16
I01
sg17
g66
sg19
g20
(g24
S'H33333\xe3?'
p399
tp400
Rp401
sg30
g112
ssI10
(dp402
g16
I01
sg17
g66
sg19
g20
(g24
S'\x00\x00\x00\x00\x00\x00\xe0<'
p403
tp404
Rp405
sg30
g122
ssI11
(dp406
g16
I01
sg17
g66
sg19
g20
(g24
S'\xcc\xcc\xcc\xcc\xcc\xcc\xfc\xbf'
p407
tp408
Rp409
sg30
g132
sssg136
(dp410
sg138
g3
(g139
g5
Ntp411
Rp412
(dp413
g143
g369
sbsg144
(dp414
I1
(dp415
sI2
(dp416
sI3
(dp417
sI5
(dp418
I1
(dp419
S'active'
p420
I01
sS'weight'
p421
g20
(g24
S'\x96\x99\x99\x99\x99\x99\xf1\xbf'
p422
tp423
Rp424
ssI2
(dp425
g175
I01
sg176
g20
(g24
S'\x0c\x00\x00\x00\x00\x00\xf0?'
p426
tp427
Rp428
ssI3
(dp429
g16
g158
sg159
g20
(g24
S'\xda\xcc\xcc\xcc\xcc\xcc\xf4?'
p430
tp431
Rp432
sssI6
(dp433
I1
(dp434
S'active'
p435
I01
sS'weight'
p436
g20
(g24
S' \x99\x99\x99\x99\x99\xb9\xbf'
p437
tp438
Rp439
ssI3
(dp440
g16
g158
sg159
g20
(g24
S'\x90\x99\x99\x99\x99\x99\xe9\xbf'
p441
tp442
Rp443
sssI7
(dp444
I1
(dp445
g16
g158
sg159
g20
(g24
S'\x14\x00\x00\x00\x00\x00\xe0?'
p446
tp447
Rp448
ssI2
(dp449
g16
g158
sg159
g20
(g24
S'\xdc\xcc\xcc\xcc\xcc\xcc\xfc?'
p450
tp451
Rp452
ssI3
(dp453
S'active'
p454
I01
sS'weight'
p455
g20
(g24
S'\xc0\x99\x99\x99\x99\x99\xd9?'
p456
tp457
Rp458
sssI8
(dp459
I1
(dp460
g16
g158
sg159
g20
(g24
S'ffffff\xfe\xbf'
p461
tp462
Rp463
ssI2
(dp464
g16
g158
sg159
g20
(g24
S'|fffff\xe6?'
p465
tp466
Rp467
ssI3
(dp468
g16
g158
sg159
g20
(g24
S'\xdc\xcc\xcc\xcc\xcc\xcc\xfc?'
p469
tp470
Rp471
sssI9
(dp472
I7
(dp473
g16
g158
sg159
g20
(g24
S'\xcc\xcc\xcc\xcc\xcc\xcc\xfc\xbf'
p474
tp475
Rp476
sssI10
(dp477
I8
(dp478
g16
g158
sg159
g20
(g24
S'\xc4\xcc\xcc\xcc\xcc\xcc\xec\xbf'
p479
tp480
Rp481
ssI5
(dp482
g16
g158
sg159
g20
(g24
S'(33333\xe3\xbf'
p483
tp484
Rp485
ssI6
(dp486
g16
g158
sg159
g20
(g24
S'\x90\x99\x99\x99\x99\x99\xe9\xbf'
p487
tp488
Rp489
ssI7
(dp490
g16
g158
sg159
g20
(g24
S'\xa6\x99\x99\x99\x99\x99\xf1?'
p491
tp492
Rp493
sssI11
(dp494
I5
(dp495
g16
g158
sg159
g20
(g24
S'tfffff\xf6?'
p496
tp497
Rp498
ssI6
(dp499
g16
g158
sg159
g20
(g24
S'\x08\x00\x00\x00\x00\x00\x00@'
p500
tp501
Rp502
ssI7
(dp503
S'active'
p504
I01
sS'weight'
p505
I10
ssssg243
(dp506
I1
(dp507
I8
g460
sI5
g419
sI6
g434
sI7
g445
ssI2
(dp508
I8
g464
sI5
g425
sI7
g449
ssI3
(dp509
I8
g468
sI5
g429
sI6
g440
sI7
g453
ssI5
(dp510
I10
g482
sI11
g495
ssI6
(dp511
I10
g486
sI11
g499
ssI7
(dp512
I9
g473
sI10
g490
sI11
g503
ssI8
(dp513
I10
g478
ssI9
(dp514
sI10
(dp515
sI11
(dp516
ssg255
g506
sg256
g10
sbag3
(g4
g5
Ntp517
Rp518
(dp519
g9
g10
sg11
g10
sg12
g10
sg13
(dp520
I1
(dp521
g16
I01
sg17
g18
sg19
g373
sg30
g36
ssI2
(dp522
g16
I01
sg17
g18
sg19
g377
sg30
g51
ssI3
(dp523
g16
I01
sg17
g18
sg19
g381
sg30
g61
ssI5
(dp524
g16
I01
sg17
g66
sg19
g385
sg30
g72
ssI6
(dp525
g16
I01
sg17
g66
sg19
g389
sg30
g82
ssI7
(dp526
g16
I01
sg17
g66
sg19
g393
sg30
g92
ssI8
(dp527
g16
I01
sg17
g66
sg19
g20
(g24
S'\xdc\xcc\xcc\xcc\xcc\xcc\xfc?'
p528
tp529
Rp530
sg30
g102
ssI9
(dp531
g16
I01
sg17
g66
sg19
g20
(g24
S'H33333\xe3?'
p532
tp533
Rp534
sg30
g112
ssI10
(dp535
g16
I01
sg17
g66
sg19
g20
(g24
S' \x9a\x99\x99\x99\x99\xb9?'
p536
tp537
Rp538
sg30
g122
ssI11
(dp539
g16
I01
sg17
g66
sg19
g409
sg30
g132
sssg136
(dp540
sg138
g3
(g139
g5
Ntp541
Rp542
(dp543
g143
g520
sbsg144
(dp544
I1
(dp545
sI2
(dp546
sI3
(dp547
sI5
(dp548
I2
(dp549
g175
I01
sg176
g20
(g24
S'\xa6\x99\x99\x99\x99\x99\xf1?'
p550
tp551
Rp552
ssI3
(dp553
g16
g158
sg159
g432
sssI6
(dp554
I2
(dp555
g16
g158
sg159
g20
(g24
S'\xa6\x99\x99\x99\x99\x99\xf1?'
p556
tp557
Rp558
ssI3
(dp559
g16
g158
sg159
g20
(g24
S'(33333\xe3\xbf'
p560
tp561
Rp562
sssI7
(dp563
I1
(dp564
g16
g158
sg159
g448
ssI2
(dp565
g16
g158
sg159
g20
(g24
S'vfffff\xfe?'
p566
tp567
Rp568
ssI3
(dp569
g454
I01
sg455
g20
(g24
S'X33333\xd3?'
p570
tp571
Rp572
sssI8
(dp573
I1
(dp574
g16
g158
sg159
g463
ssI2
(dp575
S'active'
p576
I01
sS'weight'
p577
g20
(g24
S'233333\xfb\xbf'
p578
tp579
Rp580
ssI3
(dp581
g16
g158
sg159
g471
sssI9
(dp582
I5
(dp583
g16
g158
sg159
g20
(g24
S'\xca\xcc\xcc\xcc\xcc\xcc\xf4\xbf'
p584
tp585
Rp586
ssI7
(dp587
g16
g158
sg159
g20
(g24
S'233333\xfb\xbf'
p588
tp589
Rp590
sssI10
(dp591
I8
(dp592
g16
g158
sg159
g20
(g24
S'\xc4\xcc\xcc\xcc\xcc\xcc\xec\xbf'
p593
tp594
Rp595
ssI5
(dp596
g16
g158
sg159
g20
(g24
S'\\fffff\xe6\xbf'
p597
tp598
Rp599
ssI6
(dp600
g16
g158
sg159
g20
(g24
S'\x90\x99\x99\x99\x99\x99\xe9\xbf'
p601
tp602
Rp603
ssI7
(dp604
g16
g158
sg159
g493
sssI11
(dp605
I8
(dp606
g16
g158
sg159
g20
(g24
S'\x98\x99\x99\x99\x99\x99\xf9\xbf'
p607
tp608
Rp609
ssI5
(dp610
g16
g158
sg159
g498
ssI6
(dp611
g16
g158
sg159
g502
ssI7
(dp612
g504
I01
sg505
I10
ssssg243
(dp613
I1
(dp614
I8
g574
sI7
g564
ssI2
(dp615
I8
g575
sI5
g549
sI6
g555
sI7
g565
ssI3
(dp616
I8
g581
sI5
g553
sI6
g559
sI7
g569
ssI5
(dp617
I9
g583
sI10
g596
sI11
g610
ssI6
(dp618
I10
g600
sI11
g611
ssI7
(dp619
I9
g587
sI10
g604
sI11
g612
ssI8
(dp620
I10
g592
sI11
g606
ssI9
(dp621
sI10
(dp622
sI11
(dp623
ssg255
g613
sg256
g10
sbag3
(g4
g5
Ntp624
Rp625
(dp626
g9
g10
sg11
g10
sg12
g10
sg13
(dp627
I1
(dp628
g16
I01
sg17
g18
sg19
g373
sg30
g36
ssI2
(dp629
g16
I01
sg17
g18
sg19
g377
sg30
g51
ssI3
(dp630
g16
I01
sg17
g18
sg19
g381
sg30
g61
ssI5
(dp631
g16
I01
sg17
g66
sg19
g385
sg30
g72
ssI6
(dp632
g16
I01
sg17
g66
sg19
g389
sg30
g82
ssI7
(dp633
g16
I01
sg17
g66
sg19
g393
sg30
g92
ssI8
(dp634
g16
I01
sg17
g66
sg19
g20
(g24
S'vfffff\xfe?'
p635
tp636
Rp637
sg30
g102
ssI9
(dp638
g16
I01
sg17
g66
sg19
g20
(g24
S'|fffff\xe6?'
p639
tp640
Rp641
sg30
g112
ssI10
(dp642
g16
I01
sg17
g66
sg19
g405
sg30
g122
ssI11
(dp643
g16
I01
sg17
g66
sg19
g409
sg30
g132
sssg136
(dp644
sg138
g3
(g139
g5
Ntp645
Rp646
(dp647
g143
g627
sbsg144
(dp648
I1
(dp649
sI2
(dp650
sI3
(dp651
sI5
(dp652
I1
(dp653
g420
I01
sg421
g20
(g24
S'\xf8\xff\xff\xff\xff\xff\xef\xbf'
p654
tp655
Rp656
ssI2
(dp657
g175
I01
sg176
g428
ssI3
(dp658
g16
g158
sg159
g432
sssI6
(dp659
I1
(dp660
g435
I01
sg436
g439
ssI3
(dp661
g16
g158
sg159
g20
(g24
S'\x90\x99\x99\x99\x99\x99\xe9\xbf'
p662
tp663
Rp664
sssI7
(dp665
I1
(dp666
g16
g158
sg159
g448
ssI2
(dp667
g16
g158
sg159
g452
ssI3
(dp668
g454
I01
sg455
g20
(g24
S'X33333\xd3?'
p669
tp670
Rp671
sssI8
(dp672
I1
(dp673
g16
g158
sg159
g20
(g24
S'\x00\x00\x00\x00\x00\x00\x00\xc0'
p674
tp675
Rp676
ssI3
(dp677
g16
g158
sg159
g471
sssI9
(dp678
I5
(dp679
g16
g158
sg159
g586
ssI7
(dp680
g16
g158
sg159
g20
(g24
S'ffffff\xfe\xbf'
p681
tp682
Rp683
sssI10
(dp684
I8
(dp685
g16
g158
sg159
g481
ssI5
(dp686
g16
g158
sg159
g599
ssI6
(dp687
g16
g158
sg159
g20
(g24
S'\xc4\xcc\xcc\xcc\xcc\xcc\xec\xbf'
p688
tp689
Rp690
ssI7
(dp691
g16
g158
sg159
g20
(g24
S'@33333\xf3?'
p692
tp693
Rp694
sssI11
(dp695
I8
(dp696
g16
g158
sg159
g20
(g24
S'233333\xfb\xbf'
p697
tp698
Rp699
ssI5
(dp700
g16
g158
sg159
g498
ssI6
(dp701
g16
g158
sg159
g502
ssI7
(dp702
g504
I01
sg505
I10
ssssg243
(dp703
I1
(dp704
I8
g673
sI5
g653
sI6
g660
sI7
g666
ssI2
(dp705
I5
g657
sI7
g667
ssI3
(dp706
I8
g677
sI5
g658
sI6
g661
sI7
g668
ssI5
(dp707
I9
g679
sI10
g686
sI11
g700
ssI6
(dp708
I10
g687
sI11
g701
ssI7
(dp709
I9
g680
sI10
g691
sI11
g702
ssI8
(dp710
I10
g685
sI11
g696
ssI9
(dp711
sI10
(dp712
sI11
(dp713
ssg255
g703
sg256
g10
sbag3
(g4
g5
Ntp714
Rp715
(dp716
g9
g10
sg11
g10
sg12
g10
sg13
(dp717
I1
(dp718
g16
I01
sg17
g18
sg19
g373
sg30
g36
ssI2
(dp719
g16
I01
sg17
g18
sg19
g377
sg30
g51
ssI3
(dp720
g16
I01
sg17
g18
sg19
g381
sg30
g61
ssI5
(dp721
g16
I01
sg17
g66
sg19
g385
sg30
g72
ssI6
(dp722
g16
I01
sg17
g66
sg19
g389
sg30
g82
ssI7
(dp723
g16
I01
sg17
g66
sg19
g393
sg30
g92
ssI8
(dp724
g16
I01
sg17
g66
sg19
g637
sg30
g102
ssI9
(dp725
g16
I01
sg17
g66
sg19
g641
sg30
g112
ssI10
(dp726
g16
I01
sg17
g66
sg19
g405
sg30
g122
ssI11
(dp727
g16
I01
sg17
g66
sg19
g409
sg30
g132
sssg136
(dp728
sg138
g3
(g139
g5
Ntp729
Rp730
(dp731
g143
g717
sbsg144
(dp732
I1
(dp733
sI2
(dp734
sI3
(dp735
sI5
(dp736
I1
(dp737
g420
I01
sg421
g656
ssI2
(dp738
g175
I01
sg176
g428
ssI3
(dp739
g16
g158
sg159
g432
sssI6
(dp740
I1
(dp741
g435
I01
sg436
g439
ssI3
(dp742
g16
g158
sg159
g20
(g24
S'\\fffff\xe6\xbf'
p743
tp744
Rp745
sssI7
(dp746
I1
(dp747
g16
g158
sg159
g448
ssI2
(dp748
g16
g158
sg159
g452
ssI3
(dp749
g454
I01
sg455
g458
sssI8
(dp750
I1
(dp751
g16
g158
sg159
g20
(g24
S'ffffff\xfe\xbf'
p752
tp753
Rp754
ssI2
(dp755
g16
g158
sg159
g467
ssI3
(dp756
g16
g158
sg159
g20
(g24
S'B33333\xfb?'
p757
tp758
Rp759
sssI9
(dp760
I5
(dp761
g16
g158
sg159
g586
ssI7
(dp762
g16
g158
sg159
g476
sssI10
(dp763
I8
(dp764
g16
g158
sg159
g481
ssI5
(dp765
g16
g158
sg159
g599
ssI6
(dp766
g16
g158
sg159
g489
ssI7
(dp767
g16
g158
sg159
g694
sssI11
(dp768
I8
(dp769
g16
g158
sg159
g699
ssI5
(dp770
g16
g158
sg159
g498
ssI6
(dp771
g16
g158
sg159
g502
ssI7
(dp772
g504
I01
sg505
I10
ssssg243
(dp773
I1
(dp774
I8
g751
sI5
g737
sI6
g741
sI7
g747
ssI2
(dp775
I8
g755
sI5
g738
sI7
g748
ssI3
(dp776
I8
g756
sI5
g739
sI6
g742
sI7
g749
ssI5
(dp777
I9
g761
sI10
g765
sI11
g770
ssI6
(dp778
I10
g766
sI11
g771
ssI7
(dp779
I9
g762
sI10
g767
sI11
g772
ssI8
(dp780
I10
g764
sI11
g769
ssI9
(dp781
sI10
(dp782
sI11
(dp783
ssg255
g773
sg256
g10
sbag3
(g4
g5
Ntp784
Rp785
(dp786
g9
g10
sg11
g10
sg12
g10
sg13
(dp787
I1
(dp788
g16
I01
sg17
g18
sg19
g373
sg30
g36
ssI2
(dp789
g16
I01
sg17
g18
sg19
g377
sg30
g51
ssI3
(dp790
g16
I01
sg17
g18
sg19
g381
sg30
g61
ssI5
(dp791
g16
I01
sg17
g66
sg19
g385
sg30
g72
ssI6
(dp792
g16
I01
sg17
g66
sg19
g389
sg30
g82
ssI7
(dp793
g16
I01
sg17
g66
sg19
g393
sg30
g92
ssI8
(dp794
g16
I01
sg17
g66
sg19
g637
sg30
g102
ssI9
(dp795
g16
I01
sg17
g66
sg19
g20
(g24
S'\xb0\x99\x99\x99\x99\x99\xe9?'
p796
tp797
Rp798
sg30
g112
ssI10
(dp799
g16
I01
sg17
g66
sg19
g405
sg30
g122
ssI11
(dp800
g16
I01
sg17
g66
sg19
g409
sg30
g132
sssg136
(dp801
sg138
g3
(g139
g5
Ntp802
Rp803
(dp804
g143
g787
sbsg144
(dp805
I1
(dp806
sI2
(dp807
sI3
(dp808
sI5
(dp809
I1
(dp810
g420
I01
sg421
g656
ssI2
(dp811
g175
I01
sg176
g428
ssI3
(dp812
g16
g158
sg159
g432
sssI6
(dp813
I1
(dp814
g435
I01
sg436
g439
ssI3
(dp815
g16
g158
sg159
g745
sssI7
(dp816
I1
(dp817
g16
g158
sg159
g448
ssI2
(dp818
g16
g158
sg159
g452
ssI3
(dp819
g454
I01
sg455
g458
sssI8
(dp820
I1
(dp821
g16
g158
sg159
g20
(g24
S'\x08\x00\x00\x00\x00\x00\x00@'
p822
tp823
Rp824
ssI2
(dp825
S'active'
p826
I01
sS'weight'
p827
g201
ssI3
(dp828
g16
g158
sg159
g471
sssI9
(dp829
I5
(dp830
g16
g158
sg159
g586
ssI7
(dp831
g16
g158
sg159
g476
sssI10
(dp832
I8
(dp833
g16
g158
sg159
g20
(g24
S'\x90\x99\x99\x99\x99\x99\xe9\xbf'
p834
tp835
Rp836
ssI5
(dp837
g16
g158
sg159
g599
ssI6
(dp838
g16
g158
sg159
g489
ssI7
(dp839
g16
g158
sg159
g694
sssI11
(dp840
I8
(dp841
g16
g158
sg159
g699
ssI5
(dp842
g16
g158
sg159
g498
ssI6
(dp843
g16
g158
sg159
g502
ssI7
(dp844
g504
I01
sg505
I10
ssssg243
(dp845
I1
(dp846
I8
g821
sI5
g810
sI6
g814
sI7
g817
ssI2
(dp847
I8
g825
sI5
g811
sI7
g818
ssI3
(dp848
I8
g828
sI5
g812
sI6
g815
sI7
g819
ssI5
(dp849
I9
g830
sI10
g837
sI11
g842
ssI6
(dp850
I10
g838
sI11
g843
ssI7
(dp851
I9
g831
sI10
g839
sI11
g844
ssI8
(dp852
I10
g833
sI11
g841
ssI9
(dp853
sI10
(dp854
sI11
(dp855
ssg255
g845
sg256
g10
sbag3
(g4
g5
Ntp856
Rp857
(dp858
g9
g10
sg11
g10
sg12
g10
sg13
(dp859
I1
(dp860
g16
I01
sg17
g18
sg19
g373
sg30
g36
ssI2
(dp861
g16
I01
sg17
g18
sg19
g377
sg30
g51
ssI3
(dp862
g16
I01
sg17
g18
sg19
g381
sg30
g61
ssI5
(dp863
g16
I01
sg17
g66
sg19
g20
(g24
S'\xe4\xcc\xcc\xcc\xcc\xcc\xec?'
p864
tp865
Rp866
sg30
g72
ssI6
(dp867
g16
I01
sg17
g66
sg19
g389
sg30
g82
ssI7
(dp868
g16
I01
sg17
g66
sg19
g20
(g24
S'\\fffff\xe6\xbf'
p869
tp870
Rp871
sg30
g92
ssI8
(dp872
g16
I01
sg17
g66
sg19
g530
sg30
g102
ssI9
(dp873
g16
I01
sg17
g66
sg19
g401
sg30
g112
ssI10
(dp874
g16
I01
sg17
g66
sg19
g20
(g24
S' \x99\x99\x99\x99\x99\xb9\xbf'
p875
tp876
Rp877
sg30
g122
ssI11
(dp878
g16
I01
sg17
g66
sg19
g409
sg30
g132
sssg136
(dp879
sg138
g3
(g139
g5
Ntp880
Rp881
(dp882
g143
g859
sbsg144
(dp883
I1
(dp884
sI2
(dp885
sI3
(dp886
sI5
(dp887
I1
(dp888
g16
g158
sg159
g20
(g24
S'\xe4\xcc\xcc\xcc\xcc\xcc\xec?'
p889
tp890
Rp891
ssI3
(dp892
g16
g158
sg159
g20
(g24
S'\xda\xcc\xcc\xcc\xcc\xcc\xf4?'
p893
tp894
Rp895
sssI6
(dp896
I2
(dp897
g16
g158
sg159
g20
(g24
S'@33333\xf3?'
p898
tp899
Rp900
ssI3
(dp901
g16
g158
sg159
g20
(g24
S'(33333\xe3\xbf'
p902
tp903
Rp904
sssI7
(dp905
I1
(dp906
g16
g158
sg159
g20
(g24
S'|fffff\xe6?'
p907
tp908
Rp909
ssI2
(dp910
g16
g158
sg159
g568
ssI3
(dp911
g16
g158
sg159
g20
(g24
S'@33333\xf3?'
p912
tp913
Rp914
sssI8
(dp915
I1
(dp916
g16
g158
sg159
g463
ssI2
(dp917
g16
g158
sg159
g20
(g24
S'H33333\xe3?'
p918
tp919
Rp920
ssI3
(dp921
g16
g158
sg159
g471
sssI9
(dp922
I8
(dp923
g16
g158
sg159
g20
(g24
S'\x0c\x00\x00\x00\x00\x00\xf0?'
p924
tp925
Rp926
ssI5
(dp927
g16
g158
sg159
g20
(g24
S'033333\xf3\xbf'
p928
tp929
Rp930
ssI6
(dp931
g16
g158
sg159
g20
(g24
S'B33333\xfb?'
p932
tp933
Rp934
ssI7
(dp935
g16
g158
sg159
g20
(g24
S'ffffff\xfe\xbf'
p936
tp937
Rp938
sssI10
(dp939
I8
(dp940
g16
g158
sg159
g20
(g24
S'\x90\x99\x99\x99\x99\x99\xe9\xbf'
p941
tp942
Rp943
ssI5
(dp944
g16
g158
sg159
g20
(g24
S'\xc4\xcc\xcc\xcc\xcc\xcc\xec\xbf'
p945
tp946
Rp947
ssI6
(dp948
g16
g158
sg159
g20
(g24
S'\\fffff\xe6\xbf'
p949
tp950
Rp951
ssI7
(dp952
g16
g158
sg159
g20
(g24
S'@33333\xf3?'
p953
tp954
Rp955
sssI11
(dp956
I8
(dp957
g16
g158
sg159
g20
(g24
S'\xfe\xff\xff\xff\xff\xff\xf7\xbf'
p958
tp959
Rp960
ssI5
(dp961
g16
g158
sg159
g20
(g24
S'tfffff\xf6?'
p962
tp963
Rp964
ssI6
(dp965
g16
g158
sg159
g502
ssssg243
(dp966
I1
(dp967
I8
g916
sI5
g888
sI7
g906
ssI2
(dp968
I8
g917
sI6
g897
sI7
g910
ssI3
(dp969
I8
g921
sI5
g892
sI6
g901
sI7
g911
ssI5
(dp970
I9
g927
sI10
g944
sI11
g961
ssI6
(dp971
I9
g931
sI10
g948
sI11
g965
ssI7
(dp972
I9
g935
sI10
g952
ssI8
(dp973
I9
g923
sI10
g940
sI11
g957
ssI9
(dp974
sI10
(dp975
sI11
(dp976
ssg255
g966
sg256
g10
sbaNaNaa(lp977
g3
(g4
g5
Ntp978
Rp979
(dp980
g9
g10
sg11
g10
sg12
g10
sg13
(dp981
I1
(dp982
g16
I01
sg17
g18
sg19
g29
sg30
g36
ssI2
(dp983
g16
I01
sg17
g18
sg19
g48
sg30
g51
ssI3
(dp984
g16
I01
sg17
g18
sg19
g58
sg30
g61
ssI5
(dp985
g16
I01
sg17
g66
sg19
g69
sg30
g72
ssI6
(dp986
g16
I01
sg17
g66
sg19
g79
sg30
g82
ssI7
(dp987
g16
I01
sg17
g66
sg19
g89
sg30
g92
ssI8
(dp988
g16
I01
sg17
g66
sg19
g99
sg30
g102
ssI9
(dp989
g16
I01
sg17
g66
sg19
g20
(g24
S'dfffff\xf6\xbf'
p990
tp991
Rp992
sg30
g112
ssI10
(dp993
g16
I01
sg17
g66
sg19
g119
sg30
g122
ssI11
(dp994
g16
I01
sg17
g66
sg19
g129
sg30
g132
sssg136
(dp995
sg138
g3
(g139
g5
Ntp996
Rp997
(dp998
g143
g981
sbsg144
(dp999
I1
(dp1000
sI2
(dp1001
sI3
(dp1002
sI5
(dp1003
I1
(dp1004
g16
g158
sg159
g20
(g24
S'\x96\x99\x99\x99\x99\x99\xf1\xbf'
p1005
tp1006
Rp1007
ssI3
(dp1008
g16
g158
sg159
g172
sssI6
(dp1009
I1
(dp1010
g175
I01
sg176
g179
ssI2
(dp1011
g16
g158
sg159
g183
ssI3
(dp1012
g16
g158
sg159
g20
(g24
S'B33333\xfb?'
p1013
tp1014
Rp1015
sssI7
(dp1016
I1
(dp1017
g16
g158
sg159
g315
ssI3
(dp1018
g16
g158
sg159
g196
sssI8
(dp1019
I2
(dp1020
g16
g158
sg159
g201
sssI9
(dp1021
I8
(dp1022
g16
g158
sg159
g206
ssI5
(dp1023
g208
I01
sg209
g212
ssI6
(dp1024
g16
g158
sg159
g216
sssI10
(dp1025
I8
(dp1026
g16
g158
sg159
g221
ssI5
(dp1027
g16
g158
sg159
g225
ssI6
(dp1028
g16
g158
sg159
g229
sssI11
(dp1029
I8
(dp1030
g16
g158
sg159
g234
ssI5
(dp1031
g16
g158
sg159
g238
ssI6
(dp1032
g16
g158
sg159
g242
ssssg243
(dp1033
I1
(dp1034
I5
g1004
sI6
g1010
sI7
g1017
ssI2
(dp1035
I8
g1020
sI6
g1011
ssI3
(dp1036
I5
g1008
sI6
g1012
sI7
g1018
ssI5
(dp1037
I9
g1023
sI10
g1027
sI11
g1031
ssI6
(dp1038
I9
g1024
sI10
g1028
sI11
g1032
ssI7
(dp1039
sI8
(dp1040
I9
g1022
sI10
g1026
sI11
g1030
ssI9
(dp1041
sI10
(dp1042
sI11
(dp1043
ssg255
g1033
sg256
g10
sbag3
(g4
g5
Ntp1044
Rp1045
(dp1046
g9
g10
sg11
g10
sg12
g10
sg13
(dp1047
I1
(dp1048
g16
I01
sg17
g18
sg19
g29
sg30
g36
ssI2
(dp1049
g16
I01
sg17
g18
sg19
g48
sg30
g51
ssI3
(dp1050
g16
I01
sg17
g18
sg19
g58
sg30
g61
ssI5
(dp1051
g16
I01
sg17
g66
sg19
g69
sg30
g72
ssI6
(dp1052
g16
I01
sg17
g66
sg19
g268
sg30
g82
ssI7
(dp1053
g16
I01
sg17
g66
sg19
g89
sg30
g92
ssI8
(dp1054
g16
I01
sg17
g66
sg19
g99
sg30
g102
ssI9
(dp1055
g16
I01
sg17
g66
sg19
g992
sg30
g112
ssI10
(dp1056
g16
I01
sg17
g66
sg19
g281
sg30
g122
ssI11
(dp1057
g16
I01
sg17
g66
sg19
g129
sg30
g132
sssg136
(dp1058
sg138
g3
(g139
g5
Ntp1059
Rp1060
(dp1061
g143
g1047
sbsg144
(dp1062
I1
(dp1063
sI2
(dp1064
sI3
(dp1065
sI5
(dp1066
I1
(dp1067
g16
g158
sg159
g1007
ssI3
(dp1068
g16
g158
sg159
g20
(g24
S'\x80\x99\x99\x99\x99\x99\xd9\xbf'
p1069
tp1070
Rp1071
sssI6
(dp1072
I1
(dp1073
g175
I01
sg176
g179
ssI2
(dp1074
g16
g158
sg159
g183
ssI3
(dp1075
g16
g158
sg159
g310
sssI7
(dp1076
I1
(dp1077
g16
g158
sg159
g315
ssI3
(dp1078
g16
g158
sg159
g319
sssI8
(dp1079
I2
(dp1080
g16
g158
sg159
g201
sssI9
(dp1081
I8
(dp1082
g16
g158
sg159
g326
ssI5
(dp1083
g208
I01
sg209
g330
ssI6
(dp1084
g16
g158
sg159
g216
sssI10
(dp1085
I8
(dp1086
g16
g158
sg159
g221
ssI5
(dp1087
g16
g158
sg159
g225
ssI6
(dp1088
g16
g158
sg159
g229
sssI11
(dp1089
I8
(dp1090
g16
g158
sg159
g234
ssI5
(dp1091
g16
g158
sg159
g238
ssI6
(dp1092
g16
g158
sg159
g242
ssssg243
(dp1093
I1
(dp1094
I5
g1067
sI6
g1073
sI7
g1077
ssI2
(dp1095
I8
g1080
sI6
g1074
ssI3
(dp1096
I5
g1068
sI6
g1075
sI7
g1078
ssI5
(dp1097
I9
g1083
sI10
g1087
sI11
g1091
ssI6
(dp1098
I9
g1084
sI10
g1088
sI11
g1092
ssI7
(dp1099
sI8
(dp1100
I9
g1082
sI10
g1086
sI11
g1090
ssI9
(dp1101
sI10
(dp1102
sI11
(dp1103
ssg255
g1093
sg256
g10
sbag3
(g4
g5
Ntp1104
Rp1105
(dp1106
g9
g10
sg11
g10
sg12
g10
sg13
(dp1107
I1
(dp1108
g16
I01
sg17
g18
sg19
g29
sg30
g36
ssI2
(dp1109
g16
I01
sg17
g18
sg19
g48
sg30
g51
ssI3
(dp1110
g16
I01
sg17
g18
sg19
g58
sg30
g61
ssI5
(dp1111
g16
I01
sg17
g66
sg19
g20
(g24
S'\x90\x99\x99\x99\x99\x99\xe9\xbf'
p1112
tp1113
Rp1114
sg30
g72
ssI6
(dp1115
g16
I01
sg17
g66
sg19
g20
(g24
S'\xcc\xcc\xcc\xcc\xcc\xcc\xfc\xbf'
p1116
tp1117
Rp1118
sg30
g82
ssI7
(dp1119
g16
I01
sg17
g66
sg19
g20
(g24
S'\xc4\xcc\xcc\xcc\xcc\xcc\xec\xbf'
p1120
tp1121
Rp1122
sg30
g92
ssI8
(dp1123
g16
I01
sg17
g66
sg19
g99
sg30
g102
ssI9
(dp1124
g16
I01
sg17
g66
sg19
g20
(g24
S'dfffff\xf6\xbf'
p1125
tp1126
Rp1127
sg30
g112
ssI10
(dp1128
g16
I01
sg17
g66
sg19
g281
sg30
g122
ssI11
(dp1129
g16
I01
sg17
g66
sg19
g129
sg30
g132
sssg136
(dp1130
sg138
g3
(g139
g5
Ntp1131
Rp1132
(dp1133
g143
g1107
sbsg144
(dp1134
I1
(dp1135
sI2
(dp1136
sI3
(dp1137
sI5
(dp1138
I1
(dp1139
g16
g158
sg159
g656
ssI2
(dp1140
g16
g158
sg159
g20
(g24
S'\xb0\x99\x99\x99\x99\x99\xe9?'
p1141
tp1142
Rp1143
ssI3
(dp1144
g16
g158
sg159
g1071
sssI6
(dp1145
I1
(dp1146
g175
I01
sg176
g179
ssI2
(dp1147
g16
g158
sg159
g20
(g24
S'\xc4\xcc\xcc\xcc\xcc\xcc\xec\xbf'
p1148
tp1149
Rp1150
ssI3
(dp1151
g16
g158
sg159
g20
(g24
S'tfffff\xf6?'
p1152
tp1153
Rp1154
sssI7
(dp1155
I2
(dp1156
S'active'
p1157
I01
sS'weight'
p1158
g20
(g24
S'\x08\x00\x00\x00\x00\x00\x00@'
p1159
tp1160
Rp1161
ssI3
(dp1162
g16
g158
sg159
g319
sssI8
(dp1163
I2
(dp1164
g16
g158
sg159
g580
sssI9
(dp1165
I8
(dp1166
g16
g158
sg159
g20
(g24
S'@33333\xf3?'
p1167
tp1168
Rp1169
ssI5
(dp1170
g208
I01
sg209
g330
ssI6
(dp1171
g16
g158
sg159
g20
(g24
S'\xca\xcc\xcc\xcc\xcc\xcc\xf4\xbf'
p1172
tp1173
Rp1174
sssI10
(dp1175
I8
(dp1176
g16
g158
sg159
g20
(g24
S'\xa8\x99\x99\x99\x99\x99\xf9?'
p1177
tp1178
Rp1179
ssI6
(dp1180
g16
g158
sg159
g20
(g24
S' \x9a\x99\x99\x99\x99\xb9?'
p1181
tp1182
Rp1183
sssI11
(dp1184
I8
(dp1185
g16
g158
sg159
g20
(g24
S'033333\xf3\xbf'
p1186
tp1187
Rp1188
ssI5
(dp1189
g16
g158
sg159
g20
(g24
S'\x96\x99\x99\x99\x99\x99\xf1\xbf'
p1190
tp1191
Rp1192
ssI6
(dp1193
g16
g158
sg159
g20
(g24
S'\x0e\x00\x00\x00\x00\x00\xf8?'
p1194
tp1195
Rp1196
ssssg243
(dp1197
I1
(dp1198
I5
g1139
sI6
g1146
ssI2
(dp1199
I8
g1164
sI5
g1140
sI6
g1147
sI7
g1156
ssI3
(dp1200
I5
g1144
sI6
g1151
sI7
g1162
ssI5
(dp1201
I9
g1170
sI11
g1189
ssI6
(dp1202
I9
g1171
sI10
g1180
sI11
g1193
ssI7
(dp1203
sI8
(dp1204
I9
g1166
sI10
g1176
sI11
g1185
ssI9
(dp1205
sI10
(dp1206
sI11
(dp1207
ssg255
g1197
sg256
g10
sbaNaNaNaNaNaNaNaa(lp1208
NaNaNaNaNaNaNaNaNaNaa(lp1209
NaNaNaNaNaNaNaNaNaNaa(lp1210
NaNaNaNaNaNaNaNaNaNaa(lp1211
NaNaNaNaNaNaNaNaNaNaa(lp1212
NaNaNaNaNaNaNaNaNaNaa(lp1213
NaNaNaNaNaNaNaNaNaNaa(lp1214
NaNaNaNaNaNaNaNaNaNaa.