(lp0
(lp1
NaNaNaNaNaNaNaNaNaNaa(lp2
ccopy_reg
_reconstructor
p3
(cnetworkx.classes.digraph
DiGraph
p4
c__builtin__
object
p5
Ntp6
Rp7
(dp8
S'adjlist_inner_dict_factory'
p9
c__builtin__
dict
p10
sS'node_dict_factory'
p11
g10
sS'edge_attr_dict_factory'
p12
g10
sS'_node'
p13
(dp14
I1
(dp15
S'active'
p16
I01
sS'ActFunc'
p17
cNeuralNet.activations
noFunc
p18
sS'bias'
p19
cnumpy.core.multiarray
scalar
p20
(cnumpy
dtype
p21
(S'f8'
p22
I0
I1
tp23
Rp24
(I3
S'<'
p25
NNNI-1
I-1
I0
tp26
bS'\x00\x00\x00\x00\x00\x00\x00\x00'
p27
tp28
Rp29
sS'pos'
p30
cnumpy.core.multiarray
_reconstruct
p31
(cnumpy
ndarray
p32
(I0
tp33
S'b'
p34
tp35
Rp36
(I1
(I2
tp37
g21
(S'i8'
p38
I0
I1
tp39
Rp40
(I3
S'<'
p41
NNNI-1
I-1
I0
tp42
bI00
S'\x00\x00\x00\x00\x00\x00\x00\x00\x00\x00\x00\x00\x00\x00\x00\x00'
p43
tp44
bsS'pos1'
p45
g31
(g32
(I0
tp46
g34
tp47
Rp48
(I1
(I2
tp49
g21
(S'f8'
p50
I0
I1
tp51
Rp52
(I3
S'<'
p53
NNNI-1
I-1
I0
tp54
bI00
S'\x9a\x99\x99\x99\x99\x99\xb9?\x9a\x99\x99\x99\x99\x99\xb9?'
p55
tp56
bssI2
(dp57
g16
I01
sg17
g18
sg19
g20
(g24
S'\x00\x00\x00\x00\x00\x00\x00\x00'
p58
tp59
Rp60
sg30
g31
(g32
(I0
tp61
g34
tp62
Rp63
(I1
(I2
tp64
g40
I00
S'\x01\x00\x00\x00\x00\x00\x00\x00\x00\x00\x00\x00\x00\x00\x00\x00'
p65
tp66
bsg45
g31
(g32
(I0
tp67
g34
tp68
Rp69
(I1
(I2
tp70
g52
I00
S'\x9a\x99\x99\x99\x99\x99\xf1?\x9a\x99\x99\x99\x99\x99\xb9?'
p71
tp72
bssI3
(dp73
g16
I01
sg17
g18
sg19
g20
(g24
S'\x00\x00\x00\x00\x00\x00\x00\x00'
p74
tp75
Rp76
sg30
g31
(g32
(I0
tp77
g34
tp78
Rp79
(I1
(I2
tp80
g40
I00
S'\x02\x00\x00\x00\x00\x00\x00\x00\x00\x00\x00\x00\x00\x00\x00\x00'
p81
tp82
bsg45
g31
(g32
(I0
tp83
g34
tp84
Rp85
(I1
(I2
tp86
g52
I00
S'\xcd\xcc\xcc\xcc\xcc\xcc\x00@\x9a\x99\x99\x99\x99\x99\xb9?'
p87
tp88
bssI5
(dp89
g16
I01
sg17
cNeuralNet.activations
tanh
p90
sg19
g20
(g24
S'\x00\x00\x00\x00\x00\x00\x08@'
p91
tp92
Rp93
sg30
g31
(g32
(I0
tp94
g34
tp95
Rp96
(I1
(I2
tp97
g40
I00
S'\x00\x00\x00\x00\x00\x00\x00\x00\x01\x00\x00\x00\x00\x00\x00\x00'
p98
tp99
bsg45
g31
(g32
(I0
tp100
g34
tp101
Rp102
(I1
(I2
tp103
g52
I00
S'\x9a\x99\x99\x99\x99\x99\xb9?\x9a\x99\x99\x99\x99\x99\xf1?'
p104
tp105
bssI6
(dp106
g16
I01
sg17
g90
sg19
g20
(g24
S'\x00\x00\x00\x00\x00\x00&@'
p107
tp108
Rp109
sg30
g31
(g32
(I0
tp110
g34
tp111
Rp112
(I1
(I2
tp113
g40
I00
S'\x01\x00\x00\x00\x00\x00\x00\x00\x01\x00\x00\x00\x00\x00\x00\x00'
p114
tp115
bsg45
g31
(g32
(I0
tp116
g34
tp117
Rp118
(I1
(I2
tp119
g52
I00
S'\x9a\x99\x99\x99\x99\x99\xf1?\x9a\x99\x99\x99\x99\x99\xf1?'
p120
tp121
bssI7
(dp122
g16
I01
sg17
g90
sg19
I15
sg30
g31
(g32
(I0
tp123
g34
tp124
Rp125
(I1
(I2
tp126
g40
I00
S'\x02\x00\x00\x00\x00\x00\x00\x00\x01\x00\x00\x00\x00\x00\x00\x00'
p127
tp128
bsg45
g31
(g32
(I0
tp129
g34
tp130
Rp131
(I1
(I2
tp132
g52
I00
S'\xcd\xcc\xcc\xcc\xcc\xcc\x00@\x9a\x99\x99\x99\x99\x99\xf1?'
p133
tp134
bssI8
(dp135
g16
I01
sg17
g90
sg19
g20
(g24
S'\x00\x00\x00\x00\x00\x00*@'
p136
tp137
Rp138
sg30
g31
(g32
(I0
tp139
g34
tp140
Rp141
(I1
(I2
tp142
g40
I00
S'\x03\x00\x00\x00\x00\x00\x00\x00\x01\x00\x00\x00\x00\x00\x00\x00'
p143
tp144
bsg45
g31
(g32
(I0
tp145
g34
tp146
Rp147
(I1
(I2
tp148
g52
I00
S'\xcd\xcc\xcc\xcc\xcc\xcc\x08@\x9a\x99\x99\x99\x99\x99\xf1?'
p149
tp150
bssI9
(dp151
g16
I01
sg17
g90
sg19
g20
(g24
S'2nw\xa1W<\t@'
p152
tp153
Rp154
sg30
g31
(g32
(I0
tp155
g34
tp156
Rp157
(I1
(I2
tp158
g40
I00
S'\x00\x00\x00\x00\x00\x00\x00\x00\x02\x00\x00\x00\x00\x00\x00\x00'
p159
tp160
bsg45
g31
(g32
(I0
tp161
g34
tp162
Rp163
(I1
(I2
tp164
g52
I00
S'\x9a\x99\x99\x99\x99\x99\xb9?\xcd\xcc\xcc\xcc\xcc\xcc\x00@'
p165
tp166
bssI10
(dp167
g16
I01
sg17
g90
sg19
g20
(g24
S'\x00\x00\x00\x00\x00\x00\xf0?'
p168
tp169
Rp170
sg30
g31
(g32
(I0
tp171
g34
tp172
Rp173
(I1
(I2
tp174
g40
I00
S'\x01\x00\x00\x00\x00\x00\x00\x00\x02\x00\x00\x00\x00\x00\x00\x00'
p175
tp176
bsg45
g31
(g32
(I0
tp177
g34
tp178
Rp179
(I1
(I2
tp180
g52
I00
S'\x9a\x99\x99\x99\x99\x99\xf1?\xcd\xcc\xcc\xcc\xcc\xcc\x00@'
p181
tp182
bssI11
(dp183
g16
I01
sg17
g90
sg19
g20
(g24
S'\xa0z\x92\x88\x7f\x93\x00\xc0'
p184
tp185
Rp186
sg30
g31
(g32
(I0
tp187
g34
tp188
Rp189
(I1
(I2
tp190
g40
I00
S'\x02\x00\x00\x00\x00\x00\x00\x00\x02\x00\x00\x00\x00\x00\x00\x00'
p191
tp192
bsg45
g31
(g32
(I0
tp193
g34
tp194
Rp195
(I1
(I2
tp196
g52
I00
S'\xcd\xcc\xcc\xcc\xcc\xcc\x00@\xcd\xcc\xcc\xcc\xcc\xcc\x00@'
p197
tp198
bsssS'graph'
p199
(dp200
sS'nodes'
p201
g3
(cnetworkx.classes.reportviews
NodeView
p202
g5
Ntp203
Rp204
(dp205
S'_nodes'
p206
g14
sbsS'_pred'
p207
(dp208
I1
(dp209
sI2
(dp210
sI3
(dp211
sI5
(dp212
I1
(dp213
g16
g20
(g21
(S'b1'
p214
I0
I1
tp215
Rp216
(I3
S'|'
p217
NNNI-1
I-1
I0
tp218
bS'\x01'
p219
tp220
Rp221
sS'weight'
p222
g20
(g24
S'\x00\x00\x00\x00\x00\x00*@'
p223
tp224
Rp225
ssI3
(dp226
g16
g221
sg222
g20
(g24
S'\x00\x00\x00\x00\x00\x00\x08@'
p227
tp228
Rp229
sssI6
(dp230
I1
(dp231
g16
g221
sg222
g20
(g24
S'\x10\x94\xdc\x95\x04\x96\x03@'
p232
tp233
Rp234
ssI2
(dp235
g16
g221
sg222
g20
(g24
S'\x00\x00\x00\x00\x00\x00.@'
p236
tp237
Rp238
ssI3
(dp239
g16
g221
sg222
g20
(g24
S'\x00\x00\x00\x00\x00\x00&\xc0'
p240
tp241
Rp242
sssI7
(dp243
I1
(dp244
g16
g221
sg222
I-15
ssI2
(dp245
g16
g221
sg222
g20
(g24
S'\x00\x00\x00\x00\x00\x00\x1c\xc0'
p246
tp247
Rp248
ssI3
(dp249
g16
g221
sg222
g20
(g24
S'3\xa1\xa1\x9a\x94N(\xc0'
p250
tp251
Rp252
sssI8
(dp253
I1
(dp254
g16
g221
sg222
g20
(g24
S'\xf8dv\\\t\xdd#\xc0'
p255
tp256
Rp257
ssI2
(dp258
g16
g221
sg222
g20
(g24
S'\xbc\x10\xc0\x0fJ\xa4,@'
p259
tp260
Rp261
ssI3
(dp262
g16
g221
sg222
g20
(g24
S'\x00\x00\x00\x00\x00\x00.@'
p263
tp264
Rp265
sssI9
(dp266
I8
(dp267
g16
g221
sg222
g20
(g24
S'\xe0e\x81\xefY\x9e\xfb\xbf'
p268
tp269
Rp270
ssI6
(dp271
g16
g221
sg222
g20
(g24
S'\x00\x00\x00\x00\x00\x00"@'
p272
tp273
Rp274
ssI7
(dp275
g16
g221
sg222
g20
(g24
S'\x00\x00\x00\x00\x00\x00\x14\xc0'
p276
tp277
Rp278
sssI10
(dp279
I8
(dp280
g16
g221
sg222
g20
(g24
S'\x00\x00\x00\x00\x00\x00\xf0\xbf'
p281
tp282
Rp283
ssI6
(dp284
g16
g221
sg222
g20
(g24
S'\x00\x00\x00\x00\x00\x00\x14@'
p285
tp286
Rp287
ssI7
(dp288
g16
g221
sg222
g20
(g24
S'\x00\x00\x00\x00\x00\x00\x1c\xc0'
p289
tp290
Rp291
sssI11
(dp292
I5
(dp293
g16
g221
sg222
g20
(g24
S'\x00\x00\x00\x00\x00\x00\x14@'
p294
tp295
Rp296
ssI7
(dp297
g16
g221
sg222
g20
(g24
S'\x00\x00\x00\x00\x00\x00\xf0?'
p298
tp299
Rp300
ssssS'_succ'
p301
(dp302
I1
(dp303
I8
g254
sI5
g213
sI6
g231
sI7
g244
ssI2
(dp304
I8
g258
sI6
g235
sI7
g245
ssI3
(dp305
I8
g262
sI5
g226
sI6
g239
sI7
g249
ssI5
(dp306
I11
g293
ssI6
(dp307
I9
g271
sI10
g284
ssI7
(dp308
I9
g275
sI10
g288
sI11
g297
ssI8
(dp309
I9
g267
sI10
g280
ssI9
(dp310
sI10
(dp311
sI11
(dp312
ssS'_adj'
p313
g302
sS'adjlist_outer_dict_factory'
p314
g10
sbag3
(g4
g5
Ntp315
Rp316
(dp317
g9
g10
sg11
g10
sg12
g10
sg13
(dp318
I1
(dp319
g16
I01
sg17
g18
sg19
g20
(g24
S'\x00\x00\x00\x00\x00\x00\x00\x00'
p320
tp321
Rp322
sg30
g36
sg45
g48
ssI2
(dp323
g16
I01
sg17
g18
sg19
g20
(g24
S'\x00\x00\x00\x00\x00\x00\x00\x00'
p324
tp325
Rp326
sg30
g63
sg45
g69
ssI3
(dp327
g16
I01
sg17
g18
sg19
g20
(g24
S'\x00\x00\x00\x00\x00\x00\x00\x00'
p328
tp329
Rp330
sg30
g79
sg45
g85
ssI5
(dp331
g16
I01
sg17
g90
sg19
g20
(g24
S'\x00\x00\x00\x00\x00\x00&\xc0'
p332
tp333
Rp334
sg30
g96
sg45
g102
ssI6
(dp335
g16
I01
sg17
g90
sg19
g20
(g24
S' r*\xed\xa2\x9b\x15\xc0'
p336
tp337
Rp338
sg30
g112
sg45
g118
ssI7
(dp339
g16
I01
sg17
g90
sg19
g20
(g24
S'w8%\xee %\x15@'
p340
tp341
Rp342
sg30
g125
sg45
g131
ssI8
(dp343
g16
I01
sg17
g90
sg19
g20
(g24
S'\x93\xddOgs\x8e-@'
p344
tp345
Rp346
sg30
g141
sg45
g147
ssI9
(dp347
g16
I01
sg17
g90
sg19
g20
(g24
S'\x7fT\xddu\xad\xa9\x1c\xc0'
p348
tp349
Rp350
sg30
g157
sg45
g163
ssI10
(dp351
g16
I01
sg17
g90
sg19
g20
(g24
S'R\xe5\xb4\xbd\x00b\x1c\xc0'
p352
tp353
Rp354
sg30
g173
sg45
g179
ssI11
(dp355
g16
I01
sg17
g90
sg19
g20
(g24
S'\xe7\xbd\xf26\xaf\xa3\x02\xc0'
p356
tp357
Rp358
sg30
g189
sg45
g195
sssg199
(dp359
sg201
g3
(g202
g5
Ntp360
Rp361
(dp362
g206
g318
sbsg207
(dp363
I1
(dp364
sI2
(dp365
sI3
(dp366
sI5
(dp367
I1
(dp368
g16
g221
sg222
g20
(g24
S'\x00\x00\x00\x00\x00\x00\x1c\xc0'
p369
tp370
Rp371
ssI2
(dp372
g16
g221
sg222
g20
(g24
S'\x00\x00\x00\x00\x00\x00&\xc0'
p373
tp374
Rp375
ssI3
(dp376
g16
g221
sg222
g20
(g24
S'S\xa4^\xde\xceg#\xc0'
p377
tp378
Rp379
sssI6
(dp380
I1
(dp381
g16
g221
sg222
g20
(g24
S'\xa2B\x81\x82\xcd\xa1)\xc0'
p382
tp383
Rp384
ssI2
(dp385
g16
g221
sg222
I-15
ssI3
(dp386
g16
g221
sg222
g20
(g24
S'\x8ec3\x994\xeb\xfc\xbf'
p387
tp388
Rp389
sssI7
(dp390
I1
(dp391
g16
g221
sg222
g20
(g24
S'\x00\x00\x00\x00\x00\x00\xf0\xbf'
p392
tp393
Rp394
ssI2
(dp395
g16
g221
sg222
g20
(g24
S'\xfa\x08\xd7\x15\x99\xe6\x10\xc0'
p396
tp397
Rp398
ssI3
(dp399
g16
g221
sg222
I-15
sssI8
(dp400
I1
(dp401
g16
g221
sg222
g20
(g24
S'\x00\x00\x00\x00\x00\x00\x1c\xc0'
p402
tp403
Rp404
ssI3
(dp405
g16
g221
sg222
g20
(g24
S'\x16\xaf\xa8K\x16\xf8&@'
p406
tp407
Rp408
sssI9
(dp409
I8
(dp410
g16
g221
sg222
g20
(g24
S'\x00\x00\x00\x00\x00\x00*@'
p411
tp412
Rp413
ssI5
(dp414
g16
g221
sg222
I15
ssI6
(dp415
g16
g221
sg222
g20
(g24
S'h\n\x820\xa7a\x07\xc0'
p416
tp417
Rp418
ssI7
(dp419
g16
g221
sg222
g20
(g24
S'\x00\x00\x00\x00\x00\x00.\xc0'
p420
tp421
Rp422
sssI10
(dp423
I5
(dp424
g16
g221
sg222
g20
(g24
S'\x00\x00\x00\x00\x00\x00\x1c\xc0'
p425
tp426
Rp427
ssI6
(dp428
g16
g221
sg222
g20
(g24
S'\x00\x00\x00\x00\x00\x00\x14@'
p429
tp430
Rp431
ssI7
(dp432
g16
g221
sg222
g20
(g24
S'\x00\x00\x00\x00\x00\x00*\xc0'
p433
tp434
Rp435
sssI11
(dp436
I8
(dp437
g16
g221
sg222
g20
(g24
S'\xe4\xb8-\xf5\xe2\xe4\xf1\xbf'
p438
tp439
Rp440
ssI5
(dp441
g16
g221
sg222
g20
(g24
S'\xa8\xcf@\xdf\xe8\xc6\xe4?'
p442
tp443
Rp444
ssI6
(dp445
g16
g221
sg222
g20
(g24
S'~u\x81H\xecW(@'
p446
tp447
Rp448
ssssg301
(dp449
I1
(dp450
I8
g401
sI5
g368
sI6
g381
sI7
g391
ssI2
(dp451
I5
g372
sI6
g385
sI7
g395
ssI3
(dp452
I8
g405
sI5
g376
sI6
g386
sI7
g399
ssI5
(dp453
I9
g414
sI10
g424
sI11
g441
ssI6
(dp454
I9
g415
sI10
g428
sI11
g445
ssI7
(dp455
I9
g419
sI10
g432
ssI8
(dp456
I9
g410
sI11
g437
ssI9
(dp457
sI10
(dp458
sI11
(dp459
ssg313
g449
sg314
g10
sbag3
(g4
g5
Ntp460
Rp461
(dp462
g9
g10
sg11
g10
sg12
g10
sg13
(dp463
I1
(dp464
g16
I01
sg17
g18
sg19
g322
sg30
g36
sg45
g48
ssI2
(dp465
g16
I01
sg17
g18
sg19
g326
sg30
g63
sg45
g69
ssI3
(dp466
g16
I01
sg17
g18
sg19
g330
sg30
g79
sg45
g85
ssI5
(dp467
g16
I01
sg17
g90
sg19
g334
sg30
g96
sg45
g102
ssI6
(dp468
g16
I01
sg17
g90
sg19
g338
sg30
g112
sg45
g118
ssI7
(dp469
g16
I01
sg17
g90
sg19
g342
sg30
g125
sg45
g131
ssI8
(dp470
g16
I01
sg17
g90
sg19
g346
sg30
g141
sg45
g147
ssI9
(dp471
g16
I01
sg17
g90
sg19
g350
sg30
g157
sg45
g163
ssI10
(dp472
g16
I01
sg17
g90
sg19
g354
sg30
g173
sg45
g179
ssI11
(dp473
g16
I01
sg17
g90
sg19
g358
sg30
g189
sg45
g195
sssg199
(dp474
sg201
g3
(g202
g5
Ntp475
Rp476
(dp477
g206
g463
sbsg207
(dp478
I1
(dp479
sI2
(dp480
sI3
(dp481
sI5
(dp482
I1
(dp483
g16
g221
sg222
g371
ssI2
(dp484
g16
g221
sg222
g375
ssI3
(dp485
g16
g221
sg222
g379
sssI6
(dp486
I1
(dp487
g16
g221
sg222
g384
ssI2
(dp488
g16
g221
sg222
I-15
ssI3
(dp489
g16
g221
sg222
g389
sssI7
(dp490
I1
(dp491
g16
g221
sg222
g394
ssI2
(dp492
g16
g221
sg222
g398
ssI3
(dp493
g16
g221
sg222
I-15
sssI8
(dp494
I1
(dp495
g16
g221
sg222
g404
ssI3
(dp496
g16
g221
sg222
g408
sssI9
(dp497
I8
(dp498
g16
g221
sg222
g413
ssI5
(dp499
g16
g221
sg222
I15
ssI6
(dp500
g16
g221
sg222
g418
ssI7
(dp501
g16
g221
sg222
g422
sssI10
(dp502
I5
(dp503
g16
g221
sg222
g427
ssI6
(dp504
g16
g221
sg222
g431
ssI7
(dp505
g16
g221
sg222
g435
sssI11
(dp506
I8
(dp507
g16
g221
sg222
g440
ssI5
(dp508
g16
g221
sg222
g20
(g24
S'\xe7\x1c\xddW\x8d\x16\x02@'
p509
tp510
Rp511
ssI6
(dp512
g16
g221
sg222
g448
ssssg301
(dp513
I1
(dp514
I8
g495
sI5
g483
sI6
g487
sI7
g491
ssI2
(dp515
I5
g484
sI6
g488
sI7
g492
ssI3
(dp516
I8
g496
sI5
g485
sI6
g489
sI7
g493
ssI5
(dp517
I9
g499
sI10
g503
sI11
g508
ssI6
(dp518
I9
g500
sI10
g504
sI11
g512
ssI7
(dp519
I9
g501
sI10
g505
ssI8
(dp520
I9
g498
sI11
g507
ssI9
(dp521
sI10
(dp522
sI11
(dp523
ssg313
g513
sg314
g10
sbag3
(g4
g5
Ntp524
Rp525
(dp526
g9
g10
sg11
g10
sg12
g10
sg13
(dp527
I1
(dp528
g16
I01
sg17
g18
sg19
g322
sg30
g36
sg45
g48
ssI2
(dp529
g16
I01
sg17
g18
sg19
g326
sg30
g63
sg45
g69
ssI3
(dp530
g16
I01
sg17
g18
sg19
g330
sg30
g79
sg45
g85
ssI5
(dp531
g16
I01
sg17
g90
sg19
g334
sg30
g96
sg45
g102
ssI6
(dp532
g16
I01
sg17
g90
sg19
g20
(g24
S'\x9af\xf1\x80\x82\xd3\x0b\xc0'
p533
tp534
Rp535
sg30
g112
sg45
g118
ssI7
(dp536
g16
I01
sg17
g90
sg19
g342
sg30
g125
sg45
g131
ssI8
(dp537
g16
I01
sg17
g90
sg19
I15
sg30
g141
sg45
g147
ssI9
(dp538
g16
I01
sg17
g90
sg19
g20
(g24
S'2\x08H"&\xaf \xc0'
p539
tp540
Rp541
sg30
g157
sg45
g163
ssI10
(dp542
g16
I01
sg17
g90
sg19
g20
(g24
S'\x00\x00\x00\x00\x00\x00\x08\xc0'
p543
tp544
Rp545
sg30
g173
sg45
g179
ssI11
(dp546
g16
I01
sg17
g90
sg19
g20
(g24
S'\x00\x00\x00\x00\x00\x00\x14\xc0'
p547
tp548
Rp549
sg30
g189
sg45
g195
sssg199
(dp550
sg201
g3
(g202
g5
Ntp551
Rp552
(dp553
g206
g527
sbsg207
(dp554
I1
(dp555
sI2
(dp556
sI3
(dp557
sI5
(dp558
I1
(dp559
g16
g221
sg222
g371
ssI2
(dp560
g16
g221
sg222
g20
(g24
S'\x08\xd4Ylr\xba&\xc0'
p561
tp562
Rp563
ssI3
(dp564
g16
g221
sg222
g379
sssI6
(dp565
I1
(dp566
g16
g221
sg222
g20
(g24
S'\x00\x00\x00\x00\x00\x00\x1c\xc0'
p567
tp568
Rp569
ssI2
(dp570
g16
g221
sg222
I-15
ssI3
(dp571
g16
g221
sg222
g20
(g24
S'\x04\xa3\xd6\xf6%\xea\xd6?'
p572
tp573
Rp574
sssI7
(dp575
I1
(dp576
g16
g221
sg222
g20
(g24
S'\xa8\xe3z\x84\xf6:\x07\xc0'
p577
tp578
Rp579
ssI2
(dp580
g16
g221
sg222
g20
(g24
S'/\xbb\x00\x17\t\x16\x10\xc0'
p581
tp582
Rp583
ssI3
(dp584
g16
g221
sg222
g20
(g24
S'\x00\x00\x00\x00\x00\x00.\xc0'
p585
tp586
Rp587
sssI8
(dp588
I1
(dp589
g16
g221
sg222
g404
ssI3
(dp590
g16
g221
sg222
g408
sssI9
(dp591
I8
(dp592
g16
g221
sg222
I15
ssI5
(dp593
g16
g221
sg222
I15
ssI6
(dp594
g16
g221
sg222
g20
(g24
S'\x00\x00\x00\x00\x00\x00\x08\xc0'
p595
tp596
Rp597
ssI7
(dp598
g16
g221
sg222
I-15
sssI10
(dp599
I5
(dp600
g16
g221
sg222
g427
ssI6
(dp601
g16
g221
sg222
g20
(g24
S'K\x83V\x97\xa8\xb7%@'
p602
tp603
Rp604
ssI7
(dp605
g16
g221
sg222
I-15
sssI11
(dp606
I8
(dp607
g16
g221
sg222
g20
(g24
S'\xd0H6\\\t,\xf1?'
p608
tp609
Rp610
ssI5
(dp611
g16
g221
sg222
g20
(g24
S'\x00\x00\x00\x00\x00\x00\x14\xc0'
p612
tp613
Rp614
ssI6
(dp615
g16
g221
sg222
I15
ssI7
(dp616
g16
g221
sg222
g20
(g24
S"9\x9d\x1eZX\xff'@"
p617
tp618
Rp619
ssssg301
(dp620
I1
(dp621
I8
g589
sI5
g559
sI6
g566
sI7
g576
ssI2
(dp622
I5
g560
sI6
g570
sI7
g580
ssI3
(dp623
I8
g590
sI5
g564
sI6
g571
sI7
g584
ssI5
(dp624
I9
g593
sI10
g600
sI11
g611
ssI6
(dp625
I9
g594
sI10
g601
sI11
g615
ssI7
(dp626
I9
g598
sI10
g605
sI11
g616
ssI8
(dp627
I9
g592
sI11
g607
ssI9
(dp628
sI10
(dp629
sI11
(dp630
ssg313
g620
sg314
g10
sbag3
(g4
g5
Ntp631
Rp632
(dp633
g9
g10
sg11
g10
sg12
g10
sg13
(dp634
I1
(dp635
g16
I01
sg17
g18
sg19
g322
sg30
g36
sg45
g48
ssI2
(dp636
g16
I01
sg17
g18
sg19
g326
sg30
g63
sg45
g69
ssI3
(dp637
g16
I01
sg17
g18
sg19
g330
sg30
g79
sg45
g85
ssI5
(dp638
g16
I01
sg17
g90
sg19
g334
sg30
g96
sg45
g102
ssI6
(dp639
g16
I01
sg17
g90
sg19
g535
sg30
g112
sg45
g118
ssI7
(dp640
g16
I01
sg17
g90
sg19
g342
sg30
g125
sg45
g131
ssI8
(dp641
g16
I01
sg17
g90
sg19
g20
(g24
S'\x81\xda\x12\x96\x92\x1e-@'
p642
tp643
Rp644
sg30
g141
sg45
g147
ssI9
(dp645
g16
I01
sg17
g90
sg19
g350
sg30
g157
sg45
g163
ssI10
(dp646
g16
I01
sg17
g90
sg19
g545
sg30
g173
sg45
g179
ssI11
(dp647
g16
I01
sg17
g90
sg19
g549
sg30
g189
sg45
g195
sssg199
(dp648
sg201
g3
(g202
g5
Ntp649
Rp650
(dp651
g206
g634
sbsg207
(dp652
I1
(dp653
sI2
(dp654
sI3
(dp655
sI5
(dp656
I1
(dp657
g16
g221
sg222
g371
ssI2
(dp658
g16
g221
sg222
g20
(g24
S'\xec\xf8\x9b\x9f\xba\xac)\xc0'
p659
tp660
Rp661
ssI3
(dp662
g16
g221
sg222
g20
(g24
S'\x18F\x9d\xb8\xffU#\xc0'
p663
tp664
Rp665
sssI6
(dp666
I1
(dp667
g16
g221
sg222
g569
ssI2
(dp668
g16
g221
sg222
I-15
ssI3
(dp669
g16
g221
sg222
g20
(g24
S'\x94~f.j\xef\xf5?'
p670
tp671
Rp672
sssI7
(dp673
I1
(dp674
g16
g221
sg222
g579
ssI2
(dp675
g16
g221
sg222
g583
ssI3
(dp676
g16
g221
sg222
g587
sssI8
(dp677
I1
(dp678
g16
g221
sg222
g404
ssI3
(dp679
g16
g221
sg222
g20
(g24
S"\xd9d\x95N\xdc5'@"
p680
tp681
Rp682
sssI9
(dp683
I8
(dp684
g16
g221
sg222
I15
ssI5
(dp685
g16
g221
sg222
I15
ssI6
(dp686
g16
g221
sg222
g20
(g24
S'\xac\x9f\x8b\xd1\x95\x8e\x13\xc0'
p687
tp688
Rp689
ssI7
(dp690
g16
g221
sg222
I-15
sssI10
(dp691
I5
(dp692
g16
g221
sg222
g427
ssI6
(dp693
g16
g221
sg222
g20
(g24
S'_\x15\xdb\xd8\xcbb @'
p694
tp695
Rp696
ssI7
(dp697
g16
g221
sg222
g435
sssI11
(dp698
I8
(dp699
g16
g221
sg222
g440
ssI5
(dp700
g16
g221
sg222
g614
ssI6
(dp701
g16
g221
sg222
I15
ssI7
(dp702
g16
g221
sg222
g619
ssssg301
(dp703
I1
(dp704
I8
g678
sI5
g657
sI6
g667
sI7
g674
ssI2
(dp705
I5
g658
sI6
g668
sI7
g675
ssI3
(dp706
I8
g679
sI5
g662
sI6
g669
sI7
g676
ssI5
(dp707
I9
g685
sI10
g692
sI11
g700
ssI6
(dp708
I9
g686
sI10
g693
sI11
g701
ssI7
(dp709
I9
g690
sI10
g697
sI11
g702
ssI8
(dp710
I9
g684
sI11
g699
ssI9
(dp711
sI10
(dp712
sI11
(dp713
ssg313
g703
sg314
g10
sbaNaNaNaNaNaa(lp714
g3
(g4
g5
Ntp715
Rp716
(dp717
g9
g10
sg11
g10
sg12
g10
sg13
(dp718
I1
(dp719
g16
I01
sg17
g18
sg19
g20
(g24
S'\x00\x00\x00\x00\x00\x00\x00\x00'
p720
tp721
Rp722
sg30
g36
sg45
g48
ssI2
(dp723
g16
I01
sg17
g18
sg19
g20
(g24
S'\x00\x00\x00\x00\x00\x00\x00\x00'
p724
tp725
Rp726
sg30
g63
sg45
g69
ssI3
(dp727
g16
I01
sg17
g18
sg19
g20
(g24
S'\x00\x00\x00\x00\x00\x00\x00\x00'
p728
tp729
Rp730
sg30
g79
sg45
g85
ssI5
(dp731
g16
I01
sg17
g90
sg19
g20
(g24
S'\x00\x00\x00\x00\x00\x00&\xc0'
p732
tp733
Rp734
sg30
g96
sg45
g102
ssI6
(dp735
g16
I01
sg17
g90
sg19
g20
(g24
S'\x00\x00\x00\x00\x00\x00"\xc0'
p736
tp737
Rp738
sg30
g112
sg45
g118
ssI7
(dp739
g16
I01
sg17
g90
sg19
g20
(g24
S'\x00\x00\x00\x00\x00\x00\xf0\xbf'
p740
tp741
Rp742
sg30
g125
sg45
g131
ssI8
(dp743
g16
I01
sg17
g90
sg19
g20
(g24
S'\x00\x00\x00\x00\x00\x00\x1c\xc0'
p744
tp745
Rp746
sg30
g141
sg45
g147
ssI9
(dp747
g16
I01
sg17
g90
sg19
g20
(g24
S'\x00\x00\x00\x00\x00\x00\x14@'
p748
tp749
Rp750
sg30
g157
sg45
g163
ssI10
(dp751
g16
I01
sg17
g90
sg19
g20
(g24
S'\x00\x00\x00\x00\x00\x00"\xc0'
p752
tp753
Rp754
sg30
g173
sg45
g179
ssI11
(dp755
g16
I01
sg17
g90
sg19
g20
(g24
S'\x00\x00\x00\x00\x00\x00.@'
p756
tp757
Rp758
sg30
g189
sg45
g195
sssg199
(dp759
sg201
g3
(g202
g5
Ntp760
Rp761
(dp762
g206
g718
sbsg207
(dp763
I1
(dp764
sI2
(dp765
sI3
(dp766
sI5
(dp767
I1
(dp768
g16
g221
sg222
g20
(g24
S'\x00\x00\x00\x00\x00\x00"@'
p769
tp770
Rp771
sssI6
(dp772
I2
(dp773
g16
g221
sg222
g20
(g24
S'\x00\x00\x00\x00\x00\x00"\xc0'
p774
tp775
Rp776
ssI3
(dp777
g16
g221
sg222
g20
(g24
S'\x00\x00\x00\x00\x00\x00\xf0\xbf'
p778
tp779
Rp780
sssI7
(dp781
I2
(dp782
g16
g221
sg222
g20
(g24
S'\x00\x00\x00\x00\x00\x00.@'
p783
tp784
Rp785
ssI3
(dp786
g16
g221
sg222
g20
(g24
S'\x00\x00\x00\x00\x00\x00"@'
p787
tp788
Rp789
sssI8
(dp790
I1
(dp791
g16
g221
sg222
g20
(g24
S'\x00\x00\x00\x00\x00\x00.\xc0'
p792
tp793
Rp794
ssI2
(dp795
g16
g221
sg222
g20
(g24
S'\x00\x00\x00\x00\x00\x00&@'
p796
tp797
Rp798
ssI3
(dp799
g16
g221
sg222
g20
(g24
S'\x00\x00\x00\x00\x00\x00*@'
p800
tp801
Rp802
sssI9
(dp803
I8
(dp804
g16
g221
sg222
g20
(g24
S'\x97s\x1em\xc4\r\x00\xc0'
p805
tp806
Rp807
ssI6
(dp808
g16
g221
sg222
g20
(g24
S'\x00\x00\x00\x00\x00\x00\xf0\xbf'
p809
tp810
Rp811
ssI7
(dp812
g16
g221
sg222
g20
(g24
S'\x00\x00\x00\x00\x00\x00\x1c\xc0'
p813
tp814
Rp815
sssI10
(dp816
I8
(dp817
g16
g221
sg222
g20
(g24
S'\xec\x82\xc2Tw\xbc\x17\xc0'
p818
tp819
Rp820
ssI5
(dp821
g16
g221
sg222
g20
(g24
S'\x00\x00\x00\x00\x00\x00\xf0\xbf'
p822
tp823
Rp824
ssI6
(dp825
g16
g221
sg222
g20
(g24
S'\x00\x00\x00\x00\x00\x00\x1c\xc0'
p826
tp827
Rp828
sssI11
(dp829
I5
(dp830
g16
g221
sg222
g20
(g24
S'\x00\x00\x00\x00\x00\x00\xf0?'
p831
tp832
Rp833
ssI6
(dp834
g16
g221
sg222
g20
(g24
S'\x00\x00\x00\x00\x00\x00\xf0\xbf'
p835
tp836
Rp837
ssI7
(dp838
g16
g221
sg222
g20
(g24
S'\x86\xf0O\xc2\x08\x11\xf3\xbf'
p839
tp840
Rp841
ssssg301
(dp842
I1
(dp843
I8
g791
sI5
g768
ssI2
(dp844
I8
g795
sI6
g773
sI7
g782
ssI3
(dp845
I8
g799
sI6
g777
sI7
g786
ssI5
(dp846
I10
g821
sI11
g830
ssI6
(dp847
I9
g808
sI10
g825
sI11
g834
ssI7
(dp848
I9
g812
sI11
g838
ssI8
(dp849
I9
g804
sI10
g817
ssI9
(dp850
sI10
(dp851
sI11
(dp852
ssg313
g842
sg314
g10
sbag3
(g4
g5
Ntp853
Rp854
(dp855
g9
g10
sg11
g10
sg12
g10
sg13
(dp856
I1
(dp857
g16
I01
sg17
g18
sg19
g20
(g24
S'\x00\x00\x00\x00\x00\x00\x00\x00'
p858
tp859
Rp860
sg30
g36
sg45
g48
ssI2
(dp861
g16
I01
sg17
g18
sg19
g20
(g24
S'\x00\x00\x00\x00\x00\x00\x00\x00'
p862
tp863
Rp864
sg30
g63
sg45
g69
ssI3
(dp865
g16
I01
sg17
g18
sg19
g20
(g24
S'\x00\x00\x00\x00\x00\x00\x00\x00'
p866
tp867
Rp868
sg30
g79
sg45
g85
ssI5
(dp869
g16
I01
sg17
g90
sg19
g20
(g24
S'\xaf\x1c\x92\xdc;\xe0"\xc0'
p870
tp871
Rp872
sg30
g96
sg45
g102
ssI6
(dp873
g16
I01
sg17
g90
sg19
g20
(g24
S'Z\xed\xae\x14Y-\x1a\xc0'
p874
tp875
Rp876
sg30
g112
sg45
g118
ssI7
(dp877
g16
I01
sg17
g90
sg19
g20
(g24
S'pD3r\xdeJ-\xc0'
p878
tp879
Rp880
sg30
g125
sg45
g131
ssI8
(dp881
g16
I01
sg17
g90
sg19
g20
(g24
S'\x00\x00\x00\x00\x00\x00\x1c\xc0'
p882
tp883
Rp884
sg30
g141
sg45
g147
ssI9
(dp885
g16
I01
sg17
g90
sg19
g20
(g24
S' \x18\x17\x1b=W\xec?'
p886
tp887
Rp888
sg30
g157
sg45
g163
ssI10
(dp889
g16
I01
sg17
g90
sg19
g20
(g24
S'\x00\x00\x00\x00\x00\x00\x14\xc0'
p890
tp891
Rp892
sg30
g173
sg45
g179
ssI11
(dp893
g16
I01
sg17
g90
sg19
g20
(g24
S'\xf1k\xb72\xf6\x07(@'
p894
tp895
Rp896
sg30
g189
sg45
g195
sssg199
(dp897
sg201
g3
(g202
g5
Ntp898
Rp899
(dp900
g206
g856
sbsg207
(dp901
I1
(dp902
sI2
(dp903
sI3
(dp904
sI5
(dp905
I1
(dp906
g16
g221
sg222
g20
(g24
S't\xcey\xb3>_"@'
p907
tp908
Rp909
ssI3
(dp910
g16
g221
sg222
g20
(g24
S'\x00\x00\x00\x00\x00\x00.@'
p911
tp912
Rp913
sssI6
(dp914
I1
(dp915
g16
g221
sg222
g20
(g24
S'\xc9GYV\xe5@,@'
p916
tp917
Rp918
ssI2
(dp919
g16
g221
sg222
g20
(g24
S'\xea\xf9\xf7\xbe?\xeb\x07\xc0'
p920
tp921
Rp922
ssI3
(dp923
g16
g221
sg222
g20
(g24
S'\xc2Z_\xc5io,@'
p924
tp925
Rp926
sssI7
(dp927
I1
(dp928
g16
g221
sg222
g20
(g24
S'\x82\xd5.\xdexc!@'
p929
tp930
Rp931
ssI2
(dp932
g16
g221
sg222
g20
(g24
S'\xe7\xfe<n\xfe\xd7-\xc0'
p933
tp934
Rp935
ssI3
(dp936
g16
g221
sg222
g20
(g24
S'\xab\xc9\xc3ji:\t\xc0'
p937
tp938
Rp939
sssI8
(dp940
I2
(dp941
g16
g221
sg222
g20
(g24
S'\xc0\rU\xb3\xd7\x14)@'
p942
tp943
Rp944
sssI9
(dp945
I8
(dp946
g16
g221
sg222
I15
ssI5
(dp947
g16
g221
sg222
g20
(g24
S'\xe2\x90\xc9%"\xb4\x1f\xc0'
p948
tp949
Rp950
ssI7
(dp951
g16
g221
sg222
g20
(g24
S'\xc4\xf4\x80ONc\xf7\xbf'
p952
tp953
Rp954
sssI10
(dp955
I8
(dp956
g16
g221
sg222
g20
(g24
S'\xd5\xfc\x86\xb8\x0c\xeb\x19\xc0'
p957
tp958
Rp959
ssI5
(dp960
g16
g221
sg222
g20
(g24
S'\x9c/\xea\xdemN(\xc0'
p961
tp962
Rp963
ssI6
(dp964
g16
g221
sg222
g20
(g24
S'\x9f\x94\xcec\x82\x1e\x06\xc0'
p965
tp966
Rp967
sssI11
(dp968
I8
(dp969
g16
g221
sg222
g20
(g24
S'\xa3\x98B7\x96Q"@'
p970
tp971
Rp972
ssI5
(dp973
g16
g221
sg222
g20
(g24
S'\x00\x00\x00\x00\x00\x00\x08@'
p974
tp975
Rp976
ssI7
(dp977
g16
g221
sg222
g20
(g24
S'\x91]\x15\xe8\xd3@#@'
p978
tp979
Rp980
ssssg301
(dp981
I1
(dp982
I5
g906
sI6
g915
sI7
g928
ssI2
(dp983
I8
g941
sI6
g919
sI7
g932
ssI3
(dp984
I5
g910
sI6
g923
sI7
g936
ssI5
(dp985
I9
g947
sI10
g960
sI11
g973
ssI6
(dp986
I10
g964
ssI7
(dp987
I9
g951
sI11
g977
ssI8
(dp988
I9
g946
sI10
g956
sI11
g969
ssI9
(dp989
sI10
(dp990
sI11
(dp991
ssg313
g981
sg314
g10
sbag3
(g4
g5
Ntp992
Rp993
(dp994
g9
g10
sg11
g10
sg12
g10
sg13
(dp995
I1
(dp996
g16
I01
sg17
g18
sg19
g860
sg30
g36
sg45
g48
ssI2
(dp997
g16
I01
sg17
g18
sg19
g864
sg30
g63
sg45
g69
ssI3
(dp998
g16
I01
sg17
g18
sg19
g868
sg30
g79
sg45
g85
ssI5
(dp999
g16
I01
sg17
g90
sg19
g20
(g24
S'\xcd\xe5.E\xcdY"\xc0'
p1000
tp1001
Rp1002
sg30
g96
sg45
g102
ssI6
(dp1003
g16
I01
sg17
g90
sg19
g20
(g24
S'\xa3)\xe4\xcd37\x1e\xc0'
p1004
tp1005
Rp1006
sg30
g112
sg45
g118
ssI7
(dp1007
g16
I01
sg17
g90
sg19
g880
sg30
g125
sg45
g131
ssI8
(dp1008
g16
I01
sg17
g90
sg19
g884
sg30
g141
sg45
g147
ssI9
(dp1009
g16
I01
sg17
g90
sg19
g888
sg30
g157
sg45
g163
ssI10
(dp1010
g16
I01
sg17
g90
sg19
g892
sg30
g173
sg45
g179
ssI11
(dp1011
g16
I01
sg17
g90
sg19
g20
(g24
S'\x00\x00\x00\x00\x00\x00.@'
p1012
tp1013
Rp1014
sg30
g189
sg45
g195
sssg199
(dp1015
sg201
g3
(g202
g5
Ntp1016
Rp1017
(dp1018
g206
g995
sbsg207
(dp1019
I1
(dp1020
sI2
(dp1021
sI3
(dp1022
sI5
(dp1023
I1
(dp1024
g16
g221
sg222
I15
ssI3
(dp1025
g16
g221
sg222
g913
sssI6
(dp1026
I1
(dp1027
g16
g221
sg222
I15
ssI2
(dp1028
g16
g221
sg222
g922
ssI3
(dp1029
g16
g221
sg222
g20
(g24
S'\xdc\x1d:u\x83\xb1,@'
p1030
tp1031
Rp1032
sssI7
(dp1033
I1
(dp1034
g16
g221
sg222
g20
(g24
S'\x14\xdd\xea\xa4\xef\xf3$@'
p1035
tp1036
Rp1037
ssI2
(dp1038
g16
g221
sg222
g20
(g24
S'j\xf2\xc7X\x02\x18*\xc0'
p1039
tp1040
Rp1041
ssI3
(dp1042
g16
g221
sg222
g20
(g24
S'\x00\x00\x00\x00\x00\x00"\xc0'
p1043
tp1044
Rp1045
sssI8
(dp1046
I2
(dp1047
g16
g221
sg222
g944
sssI9
(dp1048
I8
(dp1049
g16
g221
sg222
I15
ssI5
(dp1050
g16
g221
sg222
g20
(g24
S'\x13\xa10\x9c/l\x0e\xc0'
p1051
tp1052
Rp1053
ssI7
(dp1054
g16
g221
sg222
g20
(g24
S'\xca.\x07\x01\xeb\xdc\x1a\xc0'
p1055
tp1056
Rp1057
sssI10
(dp1058
I8
(dp1059
g16
g221
sg222
g959
ssI5
(dp1060
g16
g221
sg222
g963
ssI6
(dp1061
g16
g221
sg222
g967
sssI11
(dp1062
I8
(dp1063
g16
g221
sg222
g972
ssI5
(dp1064
g16
g221
sg222
g976
ssI7
(dp1065
g16
g221
sg222
I15
ssssg301
(dp1066
I1
(dp1067
I5
g1024
sI6
g1027
sI7
g1034
ssI2
(dp1068
I8
g1047
sI6
g1028
sI7
g1038
ssI3
(dp1069
I5
g1025
sI6
g1029
sI7
g1042
ssI5
(dp1070
I9
g1050
sI10
g1060
sI11
g1064
ssI6
(dp1071
I10
g1061
ssI7
(dp1072
I9
g1054
sI11
g1065
ssI8
(dp1073
I9
g1049
sI10
g1059
sI11
g1063
ssI9
(dp1074
sI10
(dp1075
sI11
(dp1076
ssg313
g1066
sg314
g10
sbaNaNaNaNaNaNaNaa(lp1077
g3
(g4
g5
Ntp1078
Rp1079
(dp1080
g9
g10
sg11
g10
sg12
g10
sg13
(dp1081
I1
(dp1082
g16
I01
sg17
g18
sg19
g20
(g24
S'\x00\x00\x00\x00\x00\x00\x00\x00'
p1083
tp1084
Rp1085
sg30
g36
sg45
g48
ssI2
(dp1086
g16
I01
sg17
g18
sg19
g20
(g24
S'\x00\x00\x00\x00\x00\x00\x00\x00'
p1087
tp1088
Rp1089
sg30
g63
sg45
g69
ssI3
(dp1090
g16
I01
sg17
g18
sg19
g20
(g24
S'\x00\x00\x00\x00\x00\x00\x00\x00'
p1091
tp1092
Rp1093
sg30
g79
sg45
g85
ssI5
(dp1094
g16
I01
sg17
g90
sg19
g20
(g24
S'\x00\x00\x00\x00\x00\x00\xf0\xbf'
p1095
tp1096
Rp1097
sg30
g96
sg45
g102
ssI6
(dp1098
g16
I01
sg17
g90
sg19
g20
(g24
S'\x00\x00\x00\x00\x00\x00.\xc0'
p1099
tp1100
Rp1101
sg30
g112
sg45
g118
ssI7
(dp1102
g16
I01
sg17
g90
sg19
g20
(g24
S'\x00\x00\x00\x00\x00\x00\x1c@'
p1103
tp1104
Rp1105
sg30
g125
sg45
g131
ssI8
(dp1106
g16
I01
sg17
g90
sg19
g20
(g24
S'\x00\x00\x00\x00\x00\x00\x08\xc0'
p1107
tp1108
Rp1109
sg30
g141
sg45
g147
ssI9
(dp1110
g16
I01
sg17
g90
sg19
g20
(g24
S'\x00\x00\x00\x00\x00\x00"\xc0'
p1111
tp1112
Rp1113
sg30
g157
sg45
g163
ssI10
(dp1114
g16
I01
sg17
g90
sg19
g20
(g24
S'\x00\x00\x00\x00\x00\x00*@'
p1115
tp1116
Rp1117
sg30
g173
sg45
g179
ssI11
(dp1118
g16
I01
sg17
g90
sg19
g20
(g24
S'\x00\x00\x00\x00\x00\x00&\xc0'
p1119
tp1120
Rp1121
sg30
g189
sg45
g195
sssg199
(dp1122
sg201
g3
(g202
g5
Ntp1123
Rp1124
(dp1125
g206
g1081
sbsg207
(dp1126
I1
(dp1127
sI2
(dp1128
sI3
(dp1129
sI5
(dp1130
I1
(dp1131
g16
g221
sg222
g20
(g24
S'\x00\x00\x00\x00\x00\x00"@'
p1132
tp1133
Rp1134
ssI3
(dp1135
g16
g221
sg222
g20
(g24
S'\x00\x00\x00\x00\x00\x00.\xc0'
p1136
tp1137
Rp1138
sssI6
(dp1139
I2
(dp1140
g16
g221
sg222
g20
(g24
S'\x00\x00\x00\x00\x00\x00*@'
p1141
tp1142
Rp1143
sssI7
(dp1144
I1
(dp1145
g16
g221
sg222
g20
(g24
S'\x00\x00\x00\x00\x00\x00&\xc0'
p1146
tp1147
Rp1148
ssI2
(dp1149
g16
g221
sg222
g20
(g24
S'\x00\x00\x00\x00\x00\x00\x14\xc0'
p1150
tp1151
Rp1152
ssI3
(dp1153
g16
g221
sg222
g20
(g24
S'\x00\x00\x00\x00\x00\x00\xf0?'
p1154
tp1155
Rp1156
sssI8
(dp1157
I1
(dp1158
g16
g221
sg222
g20
(g24
S'v\xe9\xb8\xe1q\x14\x04\xc0'
p1159
tp1160
Rp1161
ssI2
(dp1162
g16
g221
sg222
g20
(g24
S'\x00\x00\x00\x00\x00\x00&\xc0'
p1163
tp1164
Rp1165
sssI9
(dp1166
I8
(dp1167
g16
g221
sg222
g20
(g24
S'\x00\x00\x00\x00\x00\x00\x14\xc0'
p1168
tp1169
Rp1170
ssI6
(dp1171
g16
g221
sg222
g20
(g24
S'\x00\x00\x00\x00\x00\x00\x1c\xc0'
p1172
tp1173
Rp1174
sssI10
(dp1175
I8
(dp1176
g16
g221
sg222
g20
(g24
S'\x00\x00\x00\x00\x00\x00\x1c@'
p1177
tp1178
Rp1179
ssI6
(dp1180
g16
g221
sg222
g20
(g24
S'\x00\x00\x00\x00\x00\x00*@'
p1181
tp1182
Rp1183
sssI11
(dp1184
I5
(dp1185
g16
g221
sg222
g20
(g24
S'\x00\x00\x00\x00\x00\x00.\xc0'
p1186
tp1187
Rp1188
ssI6
(dp1189
g16
g221
sg222
g20
(g24
S'\x00\x00\x00\x00\x00\x00*@'
p1190
tp1191
Rp1192
ssI7
(dp1193
g16
g221
sg222
g20
(g24
S'\x00\x00\x00\x00\x00\x00\x08\xc0'
p1194
tp1195
Rp1196
ssssg301
(dp1197
I1
(dp1198
I8
g1158
sI5
g1131
sI7
g1145
ssI2
(dp1199
I8
g1162
sI6
g1140
sI7
g1149
ssI3
(dp1200
I5
g1135
sI7
g1153
ssI5
(dp1201
I11
g1185
ssI6
(dp1202
I9
g1171
sI10
g1180
sI11
g1189
ssI7
(dp1203
I11
g1193
ssI8
(dp1204
I9
g1167
sI10
g1176
ssI9
(dp1205
sI10
(dp1206
sI11
(dp1207
ssg313
g1197
sg314
g10
sbag3
(g4
g5
Ntp1208
Rp1209
(dp1210
g9
g10
sg11
g10
sg12
g10
sg13
(dp1211
I1
(dp1212
g16
I01
sg17
g18
sg19
g1085
sg30
g36
sg45
g48
ssI2
(dp1213
g16
I01
sg17
g18
sg19
g1089
sg30
g63
sg45
g69
ssI3
(dp1214
g16
I01
sg17
g18
sg19
g1093
sg30
g79
sg45
g85
ssI5
(dp1215
g16
I01
sg17
g90
sg19
g1097
sg30
g96
sg45
g102
ssI6
(dp1216
g16
I01
sg17
g90
sg19
g1101
sg30
g112
sg45
g118
ssI7
(dp1217
g16
I01
sg17
g90
sg19
g1105
sg30
g125
sg45
g131
ssI8
(dp1218
g16
I01
sg17
g90
sg19
g1109
sg30
g141
sg45
g147
ssI9
(dp1219
g16
I01
sg17
g90
sg19
g20
(g24
S'(\xb4\x9c\x0b\x95I\x0e\xc0'
p1220
tp1221
Rp1222
sg30
g157
sg45
g163
ssI10
(dp1223
g16
I01
sg17
g90
sg19
g1117
sg30
g173
sg45
g179
ssI11
(dp1224
g16
I01
sg17
g90
sg19
g1121
sg30
g189
sg45
g195
sssg199
(dp1225
sg201
g3
(g202
g5
Ntp1226
Rp1227
(dp1228
g206
g1211
sbsg207
(dp1229
I1
(dp1230
sI2
(dp1231
sI3
(dp1232
sI5
(dp1233
I1
(dp1234
g16
g221
sg222
g1134
ssI3
(dp1235
g16
g221
sg222
g1138
sssI6
(dp1236
I2
(dp1237
g16
g221
sg222
g20
(g24
S'\xfe\xe7x6\x80P*@'
p1238
tp1239
Rp1240
sssI7
(dp1241
I1
(dp1242
g16
g221
sg222
I-15
ssI2
(dp1243
g16
g221
sg222
g1152
ssI3
(dp1244
g16
g221
sg222
g20
(g24
S'L\x81\x18\x96\xe4\x8e\xfc\xbf'
p1245
tp1246
Rp1247
sssI8
(dp1248
I1
(dp1249
g16
g221
sg222
g20
(g24
S'\x1d\xe1\xf5\x91i\x82\x18\xc0'
p1250
tp1251
Rp1252
ssI2
(dp1253
g16
g221
sg222
g1165
sssI9
(dp1254
I8
(dp1255
g16
g221
sg222
g1170
ssI6
(dp1256
g16
g221
sg222
g1174
sssI10
(dp1257
I8
(dp1258
g16
g221
sg222
g1179
ssI6
(dp1259
g16
g221
sg222
g20
(g24
S"/\xa6\xc7\xba\x8b\xd4'@"
p1260
tp1261
Rp1262
sssI11
(dp1263
I5
(dp1264
g16
g221
sg222
g1188
ssI6
(dp1265
g16
g221
sg222
g1192
ssI7
(dp1266
g16
g221
sg222
g1196
ssssg301
(dp1267
I1
(dp1268
I8
g1249
sI5
g1234
sI7
g1242
ssI2
(dp1269
I8
g1253
sI6
g1237
sI7
g1243
ssI3
(dp1270
I5
g1235
sI7
g1244
ssI5
(dp1271
I11
g1264
ssI6
(dp1272
I9
g1256
sI10
g1259
sI11
g1265
ssI7
(dp1273
I11
g1266
ssI8
(dp1274
I9
g1255
sI10
g1258
ssI9
(dp1275
sI10
(dp1276
sI11
(dp1277
ssg313
g1267
sg314
g10
sbaNaNaNaNaNaNaNaNaa(lp1278
NaNaNaNaNaNaNaNaNaNaa(lp1279
NaNaNaNaNaNaNaNaNaNaa(lp1280
NaNaNaNaNaNaNaNaNaNaa(lp1281
NaNaNaNaNaNaNaNaNaNaa(lp1282
NaNaNaNaNaNaNaNaNaNaa(lp1283
NaNaNaNaNaNaNaNaNaNaa.