(lp0
(lp1
NaNaNaNaNaNaNaNaNaNaa(lp2
ccopy_reg
_reconstructor
p3
(cnetworkx.classes.digraph
DiGraph
p4
c__builtin__
object
p5
Ntp6
Rp7
(dp8
S'adjlist_inner_dict_factory'
p9
c__builtin__
dict
p10
sS'node_dict_factory'
p11
g10
sS'edge_attr_dict_factory'
p12
g10
sS'_node'
p13
(dp14
I1
(dp15
S'active'
p16
I01
sS'ActFunc'
p17
cNeuralNet.activations
noFunc
p18
sS'bias'
p19
cnumpy.core.multiarray
scalar
p20
(cnumpy
dtype
p21
(S'f8'
p22
I0
I1
tp23
Rp24
(I3
S'<'
p25
NNNI-1
I-1
I0
tp26
bS'\x00\x00\x00\x00\x00\x00\x00\x00'
p27
tp28
Rp29
sS'pos'
p30
cnumpy.core.multiarray
_reconstruct
p31
(cnumpy
ndarray
p32
(I0
tp33
S'b'
p34
tp35
Rp36
(I1
(I2
tp37
g21
(S'i8'
p38
I0
I1
tp39
Rp40
(I3
S'<'
p41
NNNI-1
I-1
I0
tp42
bI00
S'\x00\x00\x00\x00\x00\x00\x00\x00\x00\x00\x00\x00\x00\x00\x00\x00'
p43
tp44
bsS'pos1'
p45
g31
(g32
(I0
tp46
g34
tp47
Rp48
(I1
(I2
tp49
g21
(S'f8'
p50
I0
I1
tp51
Rp52
(I3
S'<'
p53
NNNI-1
I-1
I0
tp54
bI00
S'\x9a\x99\x99\x99\x99\x99\xb9?\x9a\x99\x99\x99\x99\x99\xb9?'
p55
tp56
bssI2
(dp57
g16
I01
sg17
g18
sg19
g20
(g24
S'\x00\x00\x00\x00\x00\x00\x00\x00'
p58
tp59
Rp60
sg30
g31
(g32
(I0
tp61
g34
tp62
Rp63
(I1
(I2
tp64
g40
I00
S'\x01\x00\x00\x00\x00\x00\x00\x00\x00\x00\x00\x00\x00\x00\x00\x00'
p65
tp66
bsg45
g31
(g32
(I0
tp67
g34
tp68
Rp69
(I1
(I2
tp70
g52
I00
S'\x9a\x99\x99\x99\x99\x99\xf1?\x9a\x99\x99\x99\x99\x99\xb9?'
p71
tp72
bssI3
(dp73
g16
I01
sg17
g18
sg19
g20
(g24
S'\x00\x00\x00\x00\x00\x00\x00\x00'
p74
tp75
Rp76
sg30
g31
(g32
(I0
tp77
g34
tp78
Rp79
(I1
(I2
tp80
g40
I00
S'\x02\x00\x00\x00\x00\x00\x00\x00\x00\x00\x00\x00\x00\x00\x00\x00'
p81
tp82
bsg45
g31
(g32
(I0
tp83
g34
tp84
Rp85
(I1
(I2
tp86
g52
I00
S'\xcd\xcc\xcc\xcc\xcc\xcc\x00@\x9a\x99\x99\x99\x99\x99\xb9?'
p87
tp88
bssI5
(dp89
g16
I01
sg17
cNeuralNet.activations
tanh
p90
sg19
I-15
sg30
g31
(g32
(I0
tp91
g34
tp92
Rp93
(I1
(I2
tp94
g40
I00
S'\x00\x00\x00\x00\x00\x00\x00\x00\x01\x00\x00\x00\x00\x00\x00\x00'
p95
tp96
bsg45
g31
(g32
(I0
tp97
g34
tp98
Rp99
(I1
(I2
tp100
g52
I00
S'\x9a\x99\x99\x99\x99\x99\xb9?\x9a\x99\x99\x99\x99\x99\xf1?'
p101
tp102
bssI6
(dp103
g16
I01
sg17
g90
sg19
I-15
sg30
g31
(g32
(I0
tp104
g34
tp105
Rp106
(I1
(I2
tp107
g40
I00
S'\x01\x00\x00\x00\x00\x00\x00\x00\x01\x00\x00\x00\x00\x00\x00\x00'
p108
tp109
bsg45
g31
(g32
(I0
tp110
g34
tp111
Rp112
(I1
(I2
tp113
g52
I00
S'\x9a\x99\x99\x99\x99\x99\xf1?\x9a\x99\x99\x99\x99\x99\xf1?'
p114
tp115
bssI7
(dp116
g16
I01
sg17
g90
sg19
g20
(g24
S'\xcd\xc2\xe5\x0b,\x12\x19@'
p117
tp118
Rp119
sg30
g31
(g32
(I0
tp120
g34
tp121
Rp122
(I1
(I2
tp123
g40
I00
S'\x02\x00\x00\x00\x00\x00\x00\x00\x01\x00\x00\x00\x00\x00\x00\x00'
p124
tp125
bsg45
g31
(g32
(I0
tp126
g34
tp127
Rp128
(I1
(I2
tp129
g52
I00
S'\xcd\xcc\xcc\xcc\xcc\xcc\x00@\x9a\x99\x99\x99\x99\x99\xf1?'
p130
tp131
bssI8
(dp132
g16
I01
sg17
g90
sg19
g20
(g24
S'h\xb9X\x8d\xa3~&@'
p133
tp134
Rp135
sg30
g31
(g32
(I0
tp136
g34
tp137
Rp138
(I1
(I2
tp139
g40
I00
S'\x03\x00\x00\x00\x00\x00\x00\x00\x01\x00\x00\x00\x00\x00\x00\x00'
p140
tp141
bsg45
g31
(g32
(I0
tp142
g34
tp143
Rp144
(I1
(I2
tp145
g52
I00
S'\xcd\xcc\xcc\xcc\xcc\xcc\x08@\x9a\x99\x99\x99\x99\x99\xf1?'
p146
tp147
bssI9
(dp148
g16
I01
sg17
g90
sg19
g20
(g24
S'\x1c\xe4\xa8O\x16\x05"@'
p149
tp150
Rp151
sg30
g31
(g32
(I0
tp152
g34
tp153
Rp154
(I1
(I2
tp155
g40
I00
S'\x00\x00\x00\x00\x00\x00\x00\x00\x02\x00\x00\x00\x00\x00\x00\x00'
p156
tp157
bsg45
g31
(g32
(I0
tp158
g34
tp159
Rp160
(I1
(I2
tp161
g52
I00
S'\x9a\x99\x99\x99\x99\x99\xb9?\xcd\xcc\xcc\xcc\xcc\xcc\x00@'
p162
tp163
bssI10
(dp164
g16
I01
sg17
g90
sg19
g20
(g24
S'\xd3T\xa6\x9dI\xd3-\xc0'
p165
tp166
Rp167
sg30
g31
(g32
(I0
tp168
g34
tp169
Rp170
(I1
(I2
tp171
g40
I00
S'\x01\x00\x00\x00\x00\x00\x00\x00\x02\x00\x00\x00\x00\x00\x00\x00'
p172
tp173
bsg45
g31
(g32
(I0
tp174
g34
tp175
Rp176
(I1
(I2
tp177
g52
I00
S'\x9a\x99\x99\x99\x99\x99\xf1?\xcd\xcc\xcc\xcc\xcc\xcc\x00@'
p178
tp179
bssI11
(dp180
g16
I01
sg17
g90
sg19
g20
(g24
S'\xd0~M9W\x1e\xec\xbf'
p181
tp182
Rp183
sg30
g31
(g32
(I0
tp184
g34
tp185
Rp186
(I1
(I2
tp187
g40
I00
S'\x02\x00\x00\x00\x00\x00\x00\x00\x02\x00\x00\x00\x00\x00\x00\x00'
p188
tp189
bsg45
g31
(g32
(I0
tp190
g34
tp191
Rp192
(I1
(I2
tp193
g52
I00
S'\xcd\xcc\xcc\xcc\xcc\xcc\x00@\xcd\xcc\xcc\xcc\xcc\xcc\x00@'
p194
tp195
bsssS'graph'
p196
(dp197
sS'nodes'
p198
g3
(cnetworkx.classes.reportviews
NodeView
p199
g5
Ntp200
Rp201
(dp202
S'_nodes'
p203
g14
sbsS'_pred'
p204
(dp205
I1
(dp206
sI2
(dp207
sI3
(dp208
sI5
(dp209
I1
(dp210
g16
g20
(g21
(S'b1'
p211
I0
I1
tp212
Rp213
(I3
S'|'
p214
NNNI-1
I-1
I0
tp215
bS'\x01'
p216
tp217
Rp218
sS'weight'
p219
g20
(g24
S'\xb9V:\tX\xd7+@'
p220
tp221
Rp222
sssI6
(dp223
I1
(dp224
g16
g218
sg219
g20
(g24
S'\x12\xe4\x91\x9f\r\xf2\x1d\xc0'
p225
tp226
Rp227
ssI2
(dp228
g16
g218
sg219
g20
(g24
S'\xd5\xa1\xfd ~\x92\x19\xc0'
p229
tp230
Rp231
sssI7
(dp232
I1
(dp233
g16
g218
sg219
g20
(g24
S'6\xe9\x84\x02\x0c\x90\x08\xc0'
p234
tp235
Rp236
ssI2
(dp237
g16
g218
sg219
g20
(g24
S'=g\xc0<?\x05"\xc0'
p238
tp239
Rp240
ssI3
(dp241
g16
g218
sg219
g20
(g24
S'\xc9\x10\x99_!\xa1\x0e\xc0'
p242
tp243
Rp244
sssI8
(dp245
I1
(dp246
g16
g218
sg219
g20
(g24
S'\x00\x00\x00\x00\x00\x00&\xc0'
p247
tp248
Rp249
ssI2
(dp250
g16
g218
sg219
g20
(g24
S'\x00\x00\x00\x00\x00\x00\xf0?'
p251
tp252
Rp253
ssI3
(dp254
g16
g218
sg219
g20
(g24
S'\x7fK{V\xb0)\xf9?'
p255
tp256
Rp257
sssI9
(dp258
I8
(dp259
S'active'
p260
I01
sS'weight'
p261
g20
(g24
S'\xe8\x9d\x136\xab\xef\xc0?'
p262
tp263
Rp264
ssI5
(dp265
S'active'
p266
I01
sS'weight'
p267
I-15
ssI6
(dp268
g16
g218
sg219
g20
(g24
S'\xa8\xdc\x8b$\xd9\x19\x07\xc0'
p269
tp270
Rp271
sssI10
(dp272
I8
(dp273
g16
g218
sg219
g20
(g24
S'\xfa\xe4\x8f~\xb7%!\xc0'
p274
tp275
Rp276
ssI5
(dp277
g16
g218
sg219
g20
(g24
S'\x82\xe5a\x89V\xd0\x00@'
p278
tp279
Rp280
ssI6
(dp281
g16
g218
sg219
g20
(g24
S'\x16G\xe2\xc5\x9d\xd7&\xc0'
p282
tp283
Rp284
sssI11
(dp285
I8
(dp286
g16
g218
sg219
g20
(g24
S'[uO\xd3U}\x1a@'
p287
tp288
Rp289
ssI5
(dp290
g16
g218
sg219
g20
(g24
S'^\x1c\x8e\x97d\x15-@'
p291
tp292
Rp293
ssI7
(dp294
g16
g218
sg219
I-15
ssssS'_succ'
p295
(dp296
I1
(dp297
I8
g246
sI5
g210
sI6
g224
sI7
g233
ssI2
(dp298
I8
g250
sI6
g228
sI7
g237
ssI3
(dp299
I8
g254
sI7
g241
ssI5
(dp300
I9
g265
sI10
g277
sI11
g290
ssI6
(dp301
I9
g268
sI10
g281
ssI7
(dp302
I11
g294
ssI8
(dp303
I9
g259
sI10
g273
sI11
g286
ssI9
(dp304
sI10
(dp305
sI11
(dp306
ssS'_adj'
p307
g296
sS'adjlist_outer_dict_factory'
p308
g10
sbag3
(g4
g5
Ntp309
Rp310
(dp311
g9
g10
sg11
g10
sg12
g10
sg13
(dp312
I1
(dp313
g16
I01
sg17
g18
sg19
g20
(g24
S'\x00\x00\x00\x00\x00\x00\x00\x00'
p314
tp315
Rp316
sg30
g36
sg45
g48
ssI2
(dp317
g16
I01
sg17
g18
sg19
g20
(g24
S'\x00\x00\x00\x00\x00\x00\x00\x00'
p318
tp319
Rp320
sg30
g63
sg45
g69
ssI3
(dp321
g16
I01
sg17
g18
sg19
g20
(g24
S'\x00\x00\x00\x00\x00\x00\x00\x00'
p322
tp323
Rp324
sg30
g79
sg45
g85
ssI5
(dp325
g16
I01
sg17
g90
sg19
g20
(g24
S'\x17F\xff\xef\xaap\r\xc0'
p326
tp327
Rp328
sg30
g93
sg45
g99
ssI6
(dp329
g16
I01
sg17
g90
sg19
g20
(g24
S'\x00\x00\x00\x00\x00\x00.@'
p330
tp331
Rp332
sg30
g106
sg45
g112
ssI7
(dp333
g16
I01
sg17
g90
sg19
g20
(g24
S'\xe09i\xa8\xb2\xb9\x05@'
p334
tp335
Rp336
sg30
g122
sg45
g128
ssI8
(dp337
g16
I01
sg17
g90
sg19
g20
(g24
S'\xb1\xee\xd6\x0e\xb8r\r@'
p338
tp339
Rp340
sg30
g138
sg45
g144
ssI9
(dp341
g16
I01
sg17
g90
sg19
g20
(g24
S'\x00\x00\x00\x00\x00\x00*@'
p342
tp343
Rp344
sg30
g154
sg45
g160
ssI10
(dp345
g16
I01
sg17
g90
sg19
g20
(g24
S'Y\x92\x93\xeb@\xc7 \xc0'
p346
tp347
Rp348
sg30
g170
sg45
g176
ssI11
(dp349
g16
I01
sg17
g90
sg19
g20
(g24
S'\x00\x00\x00\x00\x00\x00*\xc0'
p350
tp351
Rp352
sg30
g186
sg45
g192
sssg196
(dp353
sg198
g3
(g199
g5
Ntp354
Rp355
(dp356
g203
g312
sbsg204
(dp357
I1
(dp358
sI2
(dp359
sI3
(dp360
sI5
(dp361
I1
(dp362
g16
g218
sg219
g20
(g24
S'\xf7\xdb\xb5\x96c\xf1*\xc0'
p363
tp364
Rp365
ssI3
(dp366
g16
g218
sg219
g20
(g24
S'\xe9e\xeaB\xec4"@'
p367
tp368
Rp369
sssI6
(dp370
I1
(dp371
g16
g218
sg219
g20
(g24
S'\x99\n\xb3\xcc\xad\xc9*@'
p372
tp373
Rp374
ssI2
(dp375
g16
g218
sg219
g20
(g24
S'\x00\x00\x00\x00\x00\x00.@'
p376
tp377
Rp378
ssI3
(dp379
g16
g218
sg219
g20
(g24
S'\x00\x00\x00\x00\x00\x00\x08\xc0'
p380
tp381
Rp382
sssI7
(dp383
I1
(dp384
g16
g218
sg219
g20
(g24
S'\xee\xea\xa3\xf2lV!\xc0'
p385
tp386
Rp387
ssI2
(dp388
g16
g218
sg219
g20
(g24
S'\x00\x00\x00\x00\x00\x00\x1c\xc0'
p389
tp390
Rp391
ssI3
(dp392
g16
g218
sg219
g20
(g24
S'\x00\x00\x00\x00\x00\x00*\xc0'
p393
tp394
Rp395
sssI8
(dp396
I1
(dp397
g16
g218
sg219
g20
(g24
S'\x00\x00\x00\x00\x00\x00\xf0\xbf'
p398
tp399
Rp400
ssI3
(dp401
g16
g218
sg219
g20
(g24
S'\x10\r#\x01\xce\xdf\xe4\xbf'
p402
tp403
Rp404
sssI9
(dp405
I8
(dp406
g16
g218
sg219
g20
(g24
S'\x00\x00\x00\x00\x00\x00\x14\xc0'
p407
tp408
Rp409
ssI5
(dp410
g16
g218
sg219
g20
(g24
S'\xf8\x15\x7fWo\xdb @'
p411
tp412
Rp413
ssI6
(dp414
g16
g218
sg219
I-15
ssI7
(dp415
g16
g218
sg219
g20
(g24
S'-\x0e\xcdyr\x98)\xc0'
p416
tp417
Rp418
sssI10
(dp419
I8
(dp420
g16
g218
sg219
g20
(g24
S'\x00\x00\x00\x00\x00\x00*@'
p421
tp422
Rp423
ssI6
(dp424
g16
g218
sg219
g20
(g24
S'\xde\x8e E\x93\x8c\x13\xc0'
p425
tp426
Rp427
ssI7
(dp428
g16
g218
sg219
g20
(g24
S'\x87\x8f\x8c_I.&\xc0'
p429
tp430
Rp431
sssI11
(dp432
I8
(dp433
g16
g218
sg219
g20
(g24
S'\x00\x00\x00\x00\x00\x00.@'
p434
tp435
Rp436
ssI6
(dp437
g16
g218
sg219
g20
(g24
S'\x00\x00\x00\x00\x00\x00\x08\xc0'
p438
tp439
Rp440
ssI7
(dp441
g16
g218
sg219
g20
(g24
S'@\x80\xe3\x0b\x01m\x17@'
p442
tp443
Rp444
ssssg295
(dp445
I1
(dp446
I8
g397
sI5
g362
sI6
g371
sI7
g384
ssI2
(dp447
I6
g375
sI7
g388
ssI3
(dp448
I8
g401
sI5
g366
sI6
g379
sI7
g392
ssI5
(dp449
I9
g410
ssI6
(dp450
I9
g414
sI10
g424
sI11
g437
ssI7
(dp451
I9
g415
sI10
g428
sI11
g441
ssI8
(dp452
I9
g406
sI10
g420
sI11
g433
ssI9
(dp453
sI10
(dp454
sI11
(dp455
ssg307
g445
sg308
g10
sbag3
(g4
g5
Ntp456
Rp457
(dp458
g9
g10
sg11
g10
sg12
g10
sg13
(dp459
I1
(dp460
g16
I01
sg17
g18
sg19
g316
sg30
g36
sg45
g48
ssI2
(dp461
g16
I01
sg17
g18
sg19
g320
sg30
g63
sg45
g69
ssI3
(dp462
g16
I01
sg17
g18
sg19
g324
sg30
g79
sg45
g85
ssI5
(dp463
g16
I01
sg17
g90
sg19
g328
sg30
g93
sg45
g99
ssI6
(dp464
g16
I01
sg17
g90
sg19
g332
sg30
g106
sg45
g112
ssI7
(dp465
g16
I01
sg17
g90
sg19
g336
sg30
g122
sg45
g128
ssI8
(dp466
g16
I01
sg17
g90
sg19
g340
sg30
g138
sg45
g144
ssI9
(dp467
g16
I01
sg17
g90
sg19
g344
sg30
g154
sg45
g160
ssI10
(dp468
g16
I01
sg17
g90
sg19
g348
sg30
g170
sg45
g176
ssI11
(dp469
g16
I01
sg17
g90
sg19
g352
sg30
g186
sg45
g192
sssg196
(dp470
sg198
g3
(g199
g5
Ntp471
Rp472
(dp473
g203
g459
sbsg204
(dp474
I1
(dp475
sI2
(dp476
sI3
(dp477
sI5
(dp478
I1
(dp479
g16
g218
sg219
g20
(g24
S'\x1c\xfd\xfc\x05#y&\xc0'
p480
tp481
Rp482
ssI3
(dp483
g16
g218
sg219
g369
sssI6
(dp484
I1
(dp485
g16
g218
sg219
g20
(g24
S'X\x916\x01\x08\x9f+@'
p486
tp487
Rp488
ssI2
(dp489
g16
g218
sg219
g378
ssI3
(dp490
g16
g218
sg219
g382
sssI7
(dp491
I1
(dp492
g16
g218
sg219
g387
ssI2
(dp493
g16
g218
sg219
g391
ssI3
(dp494
g16
g218
sg219
g395
sssI8
(dp495
I1
(dp496
g16
g218
sg219
g20
(g24
S'\xfc-\x17\xc8\x16\xe9"\xc0'
p497
tp498
Rp499
ssI3
(dp500
g16
g218
sg219
g404
sssI9
(dp501
I8
(dp502
g16
g218
sg219
g409
ssI5
(dp503
g16
g218
sg219
g413
ssI6
(dp504
g16
g218
sg219
I-15
ssI7
(dp505
g16
g218
sg219
g20
(g24
S'L\x89\n\xc6\xb1N*\xc0'
p506
tp507
Rp508
sssI10
(dp509
I8
(dp510
g16
g218
sg219
g423
ssI6
(dp511
g16
g218
sg219
g427
ssI7
(dp512
g16
g218
sg219
g20
(g24
S'S:;X\xadl&\xc0'
p513
tp514
Rp515
sssI11
(dp516
I8
(dp517
g16
g218
sg219
g436
ssI6
(dp518
g16
g218
sg219
g440
ssI7
(dp519
g16
g218
sg219
g444
ssssg295
(dp520
I1
(dp521
I8
g496
sI5
g479
sI6
g485
sI7
g492
ssI2
(dp522
I6
g489
sI7
g493
ssI3
(dp523
I8
g500
sI5
g483
sI6
g490
sI7
g494
ssI5
(dp524
I9
g503
ssI6
(dp525
I9
g504
sI10
g511
sI11
g518
ssI7
(dp526
I9
g505
sI10
g512
sI11
g519
ssI8
(dp527
I9
g502
sI10
g510
sI11
g517
ssI9
(dp528
sI10
(dp529
sI11
(dp530
ssg307
g520
sg308
g10
sbag3
(g4
g5
Ntp531
Rp532
(dp533
g9
g10
sg11
g10
sg12
g10
sg13
(dp534
I1
(dp535
g16
I01
sg17
g18
sg19
g20
(g24
S'\x00\x00\x00\x00\x00\x00\x00\x00'
p536
tp537
Rp538
sg30
g36
sg45
g48
ssI2
(dp539
g16
I01
sg17
g18
sg19
g20
(g24
S'\x00\x00\x00\x00\x00\x00\x00\x00'
p540
tp541
Rp542
sg30
g63
sg45
g69
ssI3
(dp543
g16
I01
sg17
g18
sg19
g20
(g24
S'\x00\x00\x00\x00\x00\x00\x00\x00'
p544
tp545
Rp546
sg30
g79
sg45
g85
ssI5
(dp547
g16
I01
sg17
g90
sg19
g20
(g24
S'\xd3~\xccT\xd9\x92,@'
p548
tp549
Rp550
sg30
g93
sg45
g99
ssI6
(dp551
g16
I01
sg17
g90
sg19
g20
(g24
S'\xd0\x1c\x07\xa8\x93\x13\x16\xc0'
p552
tp553
Rp554
sg30
g106
sg45
g112
ssI7
(dp555
g16
I01
sg17
g90
sg19
I15
sg30
g122
sg45
g128
ssI8
(dp556
g16
I01
sg17
g90
sg19
g20
(g24
S'\x83eC^.k\x0f\xc0'
p557
tp558
Rp559
sg30
g138
sg45
g144
ssI9
(dp560
g16
I01
sg17
g90
sg19
g20
(g24
S'\t\xf9\x16\xafX\xf8&\xc0'
p561
tp562
Rp563
sg30
g154
sg45
g160
ssI10
(dp564
g16
I01
sg17
g90
sg19
g20
(g24
S'\x83\x88c\xfeV\xc3*\xc0'
p565
tp566
Rp567
sg30
g170
sg45
g176
ssI11
(dp568
g16
I01
sg17
g90
sg19
g20
(g24
S'r\xff\xe1\x174G#\xc0'
p569
tp570
Rp571
sg30
g186
sg45
g192
sssg196
(dp572
sg198
g3
(g199
g5
Ntp573
Rp574
(dp575
g203
g534
sbsg204
(dp576
I1
(dp577
sI2
(dp578
sI3
(dp579
sI5
(dp580
I1
(dp581
g16
g218
sg219
g20
(g24
S'\x0fv\xa27h\xca,@'
p582
tp583
Rp584
ssI2
(dp585
g16
g218
sg219
g20
(g24
S'z\x84\xdcrM\xba\x1c@'
p586
tp587
Rp588
ssI3
(dp589
g16
g218
sg219
g20
(g24
S'\xda\x17\x91\xfa\x9e\x8c+\xc0'
p590
tp591
Rp592
sssI6
(dp593
I1
(dp594
g16
g218
sg219
g20
(g24
S'\x00\x00\x00\x00\x00\x00\x14\xc0'
p595
tp596
Rp597
ssI2
(dp598
g16
g218
sg219
g20
(g24
S"=c\x8f>\x16#'@"
p599
tp600
Rp601
ssI3
(dp602
g16
g218
sg219
g20
(g24
S'\x83k\x7f\x9f4\x01,\xc0'
p603
tp604
Rp605
sssI7
(dp606
I1
(dp607
g16
g218
sg219
g20
(g24
S'\xc6\xe8\x90\xc3\x05\xe3\x15@'
p608
tp609
Rp610
ssI2
(dp611
g16
g218
sg219
g20
(g24
S'c\xdc\x91 \x86%\x1f\xc0'
p612
tp613
Rp614
ssI3
(dp615
S'active'
p616
I01
sS'weight'
p617
g20
(g24
S'\x1c\xd9[&\xa1\xdf\x16\xc0'
p618
tp619
Rp620
sssI8
(dp621
I1
(dp622
g16
g218
sg219
g20
(g24
S'\\\xb2F\x8f\xa4\xb2\xd4?'
p623
tp624
Rp625
ssI2
(dp626
g16
g218
sg219
g20
(g24
S',\xa1\xaf\x06\xcb\xc7-\xc0'
p627
tp628
Rp629
ssI3
(dp630
g16
g218
sg219
g20
(g24
S'z\x1c\xf4U8k)\xc0'
p631
tp632
Rp633
sssI9
(dp634
I8
(dp635
g16
g218
sg219
g20
(g24
S'\xb9z*\xa5@\x1c\x17\xc0'
p636
tp637
Rp638
ssI5
(dp639
g16
g218
sg219
g20
(g24
S'\xe4xNm\xa4\x0e#@'
p640
tp641
Rp642
ssI6
(dp643
g16
g218
sg219
g20
(g24
S'F\xbc6\x1b`\xc8(@'
p644
tp645
Rp646
ssI7
(dp647
g16
g218
sg219
g20
(g24
S'\x15\x17\x14\xa6\xd5\x83"@'
p648
tp649
Rp650
sssI10
(dp651
I8
(dp652
g16
g218
sg219
g20
(g24
S'\xa0\x97yY]\x0c\x1b@'
p653
tp654
Rp655
ssI5
(dp656
g16
g218
sg219
g20
(g24
S'_\xe3<\xf0X\xf3*\xc0'
p657
tp658
Rp659
ssI6
(dp660
g16
g218
sg219
g20
(g24
S"\x9a\xb4B\xfa\xa5%'@"
p661
tp662
Rp663
ssI7
(dp664
g16
g218
sg219
g20
(g24
S"\xcb\xa3\x05x\x9a<'@"
p665
tp666
Rp667
sssI11
(dp668
I8
(dp669
g16
g218
sg219
g20
(g24
S'f.\xd9\xf1\x1d*"@'
p670
tp671
Rp672
ssI5
(dp673
g16
g218
sg219
I15
ssI6
(dp674
g16
g218
sg219
g20
(g24
S'v\x0b\xe4\xc0Fd\x1b\xc0'
p675
tp676
Rp677
ssI7
(dp678
g16
g218
sg219
g20
(g24
S'"C\xc5\xa3t\xe4\x13\xc0'
p679
tp680
Rp681
ssssg295
(dp682
I1
(dp683
I8
g622
sI5
g581
sI6
g594
sI7
g607
ssI2
(dp684
I8
g626
sI5
g585
sI6
g598
sI7
g611
ssI3
(dp685
I8
g630
sI5
g589
sI6
g602
sI7
g615
ssI5
(dp686
I9
g639
sI10
g656
sI11
g673
ssI6
(dp687
I9
g643
sI10
g660
sI11
g674
ssI7
(dp688
I9
g647
sI10
g664
sI11
g678
ssI8
(dp689
I9
g635
sI10
g652
sI11
g669
ssI9
(dp690
sI10
(dp691
sI11
(dp692
ssg307
g682
sg308
g10
sbag3
(g4
g5
Ntp693
Rp694
(dp695
g9
g10
sg11
g10
sg12
g10
sg13
(dp696
I1
(dp697
g16
I01
sg17
g18
sg19
g538
sg30
g36
sg45
g48
ssI2
(dp698
g16
I01
sg17
g18
sg19
g542
sg30
g63
sg45
g69
ssI3
(dp699
g16
I01
sg17
g18
sg19
g546
sg30
g79
sg45
g85
ssI5
(dp700
g16
I01
sg17
g90
sg19
g550
sg30
g93
sg45
g99
ssI6
(dp701
g16
I01
sg17
g90
sg19
g20
(g24
S'\x0cI\xe3!6\x91\x12\xc0'
p702
tp703
Rp704
sg30
g106
sg45
g112
ssI7
(dp705
g16
I01
sg17
g90
sg19
I15
sg30
g122
sg45
g128
ssI8
(dp706
g16
I01
sg17
g90
sg19
g20
(g24
S'\xf3\xbb\x14\xea\xd4\x1e\x15\xc0'
p707
tp708
Rp709
sg30
g138
sg45
g144
ssI9
(dp710
g16
I01
sg17
g90
sg19
g563
sg30
g154
sg45
g160
ssI10
(dp711
g16
I01
sg17
g90
sg19
g567
sg30
g170
sg45
g176
ssI11
(dp712
g16
I01
sg17
g90
sg19
g571
sg30
g186
sg45
g192
sssg196
(dp713
sg198
g3
(g199
g5
Ntp714
Rp715
(dp716
g203
g696
sbsg204
(dp717
I1
(dp718
sI2
(dp719
sI3
(dp720
sI5
(dp721
I1
(dp722
g16
g218
sg219
I15
ssI2
(dp723
g16
g218
sg219
g20
(g24
S'\xc8\xa3\x1d\xa7\xb2&\xf9?'
p724
tp725
Rp726
ssI3
(dp727
g16
g218
sg219
g592
sssI6
(dp728
I1
(dp729
g16
g218
sg219
g597
ssI2
(dp730
g16
g218
sg219
I15
ssI3
(dp731
g16
g218
sg219
g605
sssI7
(dp732
I1
(dp733
g16
g218
sg219
g20
(g24
S'\xc8\xf4erB%!@'
p734
tp735
Rp736
ssI2
(dp737
g16
g218
sg219
g614
ssI3
(dp738
g616
I01
sg617
g20
(g24
S'\xaf\xa1\xe6\xe0\xcd\x12\x05\xc0'
p739
tp740
Rp741
sssI8
(dp742
I1
(dp743
g16
g218
sg219
g20
(g24
S'\xf0\xe5\xd4\xd5X\x0e\xce\xbf'
p744
tp745
Rp746
ssI2
(dp747
g16
g218
sg219
g20
(g24
S't@\xa4\x0b\xf0S)\xc0'
p748
tp749
Rp750
ssI3
(dp751
g16
g218
sg219
g633
sssI9
(dp752
I8
(dp753
g16
g218
sg219
g20
(g24
S'\x88x%\x8e\x90\xe0 \xc0'
p754
tp755
Rp756
ssI5
(dp757
g16
g218
sg219
g20
(g24
S'\xdbF\xd3Gf\x10\x19@'
p758
tp759
Rp760
ssI6
(dp761
g16
g218
sg219
g646
ssI7
(dp762
g16
g218
sg219
g20
(g24
S'\xb2\x08L\xfc\xec_\x1e@'
p763
tp764
Rp765
sssI10
(dp766
I8
(dp767
g16
g218
sg219
g655
ssI5
(dp768
g16
g218
sg219
g20
(g24
S'<\xd3\x8a.\xb2\x87+\xc0'
p769
tp770
Rp771
ssI6
(dp772
g16
g218
sg219
g663
ssI7
(dp773
g16
g218
sg219
g667
sssI11
(dp774
I8
(dp775
g16
g218
sg219
g672
ssI5
(dp776
g16
g218
sg219
I15
ssI6
(dp777
g16
g218
sg219
g677
ssI7
(dp778
g16
g218
sg219
g681
ssssg295
(dp779
I1
(dp780
I8
g743
sI5
g722
sI6
g729
sI7
g733
ssI2
(dp781
I8
g747
sI5
g723
sI6
g730
sI7
g737
ssI3
(dp782
I8
g751
sI5
g727
sI6
g731
sI7
g738
ssI5
(dp783
I9
g757
sI10
g768
sI11
g776
ssI6
(dp784
I9
g761
sI10
g772
sI11
g777
ssI7
(dp785
I9
g762
sI10
g773
sI11
g778
ssI8
(dp786
I9
g753
sI10
g767
sI11
g775
ssI9
(dp787
sI10
(dp788
sI11
(dp789
ssg307
g779
sg308
g10
sbaNaNaNaNaNaa(lp790
g3
(g4
g5
Ntp791
Rp792
(dp793
g9
g10
sg11
g10
sg12
g10
sg13
(dp794
I1
(dp795
g16
I01
sg17
g18
sg19
g29
sg30
g36
sg45
g48
ssI2
(dp796
g16
I01
sg17
g18
sg19
g60
sg30
g63
sg45
g69
ssI3
(dp797
g16
I01
sg17
g18
sg19
g76
sg30
g79
sg45
g85
ssI5
(dp798
g16
I01
sg17
g90
sg19
I-15
sg30
g93
sg45
g99
ssI6
(dp799
g16
I01
sg17
g90
sg19
g20
(g24
S'[\xb3\x1e\x9c|v\x13\xc0'
p800
tp801
Rp802
sg30
g106
sg45
g112
ssI7
(dp803
g16
I01
sg17
g90
sg19
g119
sg30
g122
sg45
g128
ssI8
(dp804
g16
I01
sg17
g90
sg19
g135
sg30
g138
sg45
g144
ssI9
(dp805
g16
I01
sg17
g90
sg19
g151
sg30
g154
sg45
g160
ssI10
(dp806
g16
I01
sg17
g90
sg19
g167
sg30
g170
sg45
g176
ssI11
(dp807
g16
I01
sg17
g90
sg19
g20
(g24
S' \xf3\x9c\x07 \xab\xe7?'
p808
tp809
Rp810
sg30
g186
sg45
g192
sssg196
(dp811
sg198
g3
(g199
g5
Ntp812
Rp813
(dp814
g203
g794
sbsg204
(dp815
I1
(dp816
sI2
(dp817
sI3
(dp818
sI5
(dp819
I1
(dp820
g16
g218
sg219
g222
sssI6
(dp821
I1
(dp822
g16
g218
sg219
g20
(g24
S'\xc6\xef\xe55\xc2u \xc0'
p823
tp824
Rp825
sssI7
(dp826
I1
(dp827
g16
g218
sg219
g236
ssI2
(dp828
g16
g218
sg219
g20
(g24
S'\xa5\x87G\xca\xec_%\xc0'
p829
tp830
Rp831
ssI3
(dp832
g16
g218
sg219
g244
sssI8
(dp833
I1
(dp834
g16
g218
sg219
g20
(g24
S'\x1e\xb5\x9c\xed\xd9\xa5#\xc0'
p835
tp836
Rp837
ssI2
(dp838
g16
g218
sg219
g253
ssI3
(dp839
g16
g218
sg219
g257
sssI9
(dp840
I8
(dp841
g260
I01
sg261
g20
(g24
S'\xc82\x14\xf9R)\xdc\xbf'
p842
tp843
Rp844
ssI5
(dp845
g266
I01
sg267
g20
(g24
S'\n\xe5`#\xb7\xec+\xc0'
p846
tp847
Rp848
ssI6
(dp849
g16
g218
sg219
g271
sssI10
(dp850
I8
(dp851
g16
g218
sg219
g276
ssI6
(dp852
g16
g218
sg219
I-15
sssI11
(dp853
I8
(dp854
g16
g218
sg219
g289
ssI5
(dp855
g16
g218
sg219
g20
(g24
S'}i#\x7f\xfc\xc7-@'
p856
tp857
Rp858
ssI7
(dp859
g16
g218
sg219
I-15
ssssg295
(dp860
I1
(dp861
I8
g834
sI5
g820
sI6
g822
sI7
g827
ssI2
(dp862
I8
g838
sI7
g828
ssI3
(dp863
I8
g839
sI7
g832
ssI5
(dp864
I9
g845
sI11
g855
ssI6
(dp865
I9
g849
sI10
g852
ssI7
(dp866
I11
g859
ssI8
(dp867
I9
g841
sI10
g851
sI11
g854
ssI9
(dp868
sI10
(dp869
sI11
(dp870
ssg307
g860
sg308
g10
sbag3
(g4
g5
Ntp871
Rp872
(dp873
g9
g10
sg11
g10
sg12
g10
sg13
(dp874
I1
(dp875
g16
I01
sg17
g18
sg19
g29
sg30
g36
sg45
g48
ssI2
(dp876
g16
I01
sg17
g18
sg19
g60
sg30
g63
sg45
g69
ssI3
(dp877
g16
I01
sg17
g18
sg19
g76
sg30
g79
sg45
g85
ssI5
(dp878
g16
I01
sg17
g90
sg19
g20
(g24
S'\x07*\xd4\x00b\\+\xc0'
p879
tp880
Rp881
sg30
g93
sg45
g99
ssI6
(dp882
g16
I01
sg17
g90
sg19
g20
(g24
S"\xbc!\x02\x05L\xff'\xc0"
p883
tp884
Rp885
sg30
g106
sg45
g112
ssI7
(dp886
g16
I01
sg17
g90
sg19
g119
sg30
g122
sg45
g128
ssI8
(dp887
g16
I01
sg17
g90
sg19
g135
sg30
g138
sg45
g144
ssI9
(dp888
g16
I01
sg17
g90
sg19
g20
(g24
S'\x0c\xc05\xcf\x17\xe1\x10@'
p889
tp890
Rp891
sg30
g154
sg45
g160
ssI10
(dp892
g16
I01
sg17
g90
sg19
g20
(g24
S'/\tl^]\xdb\x1d\xc0'
p893
tp894
Rp895
sg30
g170
sg45
g176
ssI11
(dp896
g16
I01
sg17
g90
sg19
g20
(g24
S'k\xb2{7S\xed\x0f\xc0'
p897
tp898
Rp899
sg30
g186
sg45
g192
sssg196
(dp900
sg198
g3
(g199
g5
Ntp901
Rp902
(dp903
g203
g874
sbsg204
(dp904
I1
(dp905
sI2
(dp906
sI3
(dp907
sI5
(dp908
I1
(dp909
g16
g218
sg219
I15
sssI6
(dp910
I1
(dp911
g16
g218
sg219
g825
sssI7
(dp912
I1
(dp913
g16
g218
sg219
g236
ssI2
(dp914
g16
g218
sg219
g831
ssI3
(dp915
g16
g218
sg219
g244
sssI8
(dp916
I1
(dp917
g16
g218
sg219
g837
ssI2
(dp918
g16
g218
sg219
g20
(g24
S'\xc2OS\xfb|\\\x03@'
p919
tp920
Rp921
ssI3
(dp922
g16
g218
sg219
g20
(g24
S'o\x9fR\x17\x11G\x14@'
p923
tp924
Rp925
sssI9
(dp926
I8
(dp927
g260
I01
sg261
g844
ssI5
(dp928
g266
I01
sg267
I-15
ssI6
(dp929
g16
g218
sg219
g271
sssI10
(dp930
I8
(dp931
g16
g218
sg219
g276
ssI6
(dp932
g16
g218
sg219
g20
(g24
S'\x02q\t\xac\xc5\xd6,\xc0'
p933
tp934
Rp935
sssI11
(dp936
I8
(dp937
g16
g218
sg219
g20
(g24
S"D\xebAwa\xbf'@"
p938
tp939
Rp940
ssI5
(dp941
g16
g218
sg219
g858
ssI7
(dp942
g16
g218
sg219
I-15
ssssg295
(dp943
I1
(dp944
I8
g917
sI5
g909
sI6
g911
sI7
g913
ssI2
(dp945
I8
g918
sI7
g914
ssI3
(dp946
I8
g922
sI7
g915
ssI5
(dp947
I9
g928
sI11
g941
ssI6
(dp948
I9
g929
sI10
g932
ssI7
(dp949
I11
g942
ssI8
(dp950
I9
g927
sI10
g931
sI11
g937
ssI9
(dp951
sI10
(dp952
sI11
(dp953
ssg307
g943
sg308
g10
sbaNaNaNaNaNaNaNaNaa(lp954
NaNaNaNaNaNaNaNaNaNaa(lp955
NaNaNaNaNaNaNaNaNaNaa(lp956
NaNaNaNaNaNaNaNaNaNaa(lp957
NaNaNaNaNaNaNaNaNaNaa(lp958
NaNaNaNaNaNaNaNaNaNaa(lp959
NaNaNaNaNaNaNaNaNaNaa(lp960
NaNaNaNaNaNaNaNaNaNaa.